
/home/mohammad/abc_vec/nucleusrv/imperas-riscv-tests/work/rv32i_m/Vx/VAADD-VV-SEW32_LMUL1.elf:     file format elf32-littleriscv


Disassembly of section .text.init:

00000000 <rvtest_entry_point>:
   0:	0440006f          	j	44 <reset_vector>

00000004 <trap_vector>:
   4:	342022f3          	csrr	t0,mcause
   8:	00800313          	li	t1,8
   c:	02628663          	beq	t0,t1,38 <write_tohost>
  10:	00900313          	li	t1,9
  14:	02628263          	beq	t0,t1,38 <write_tohost>
  18:	00b00313          	li	t1,11
  1c:	00628e63          	beq	t0,t1,38 <write_tohost>
  20:	00000293          	li	t0,0
  24:	00028463          	beqz	t0,2c <trap_vector+0x28>
  28:	00028067          	jr	t0
  2c:	342022f3          	csrr	t0,mcause
  30:	0002d263          	bgez	t0,34 <handle_exception>

00000034 <handle_exception>:
  34:	5391e193          	ori	gp,gp,1337

00000038 <write_tohost>:
  38:	00003297          	auipc	t0,0x3
  3c:	fc32a423          	sw	gp,-56(t0) # 3000 <tohost>
  40:	ff9ff06f          	j	38 <write_tohost>

00000044 <reset_vector>:
  44:	00002537          	lui	a0,0x2
  48:	80050513          	addi	a0,a0,-2048 # 1800 <rvtest_code_end+0x970>
  4c:	30052073          	csrs	mstatus,a0
  50:	00000297          	auipc	t0,0x0
  54:	fb428293          	addi	t0,t0,-76 # 4 <trap_vector>
  58:	30529073          	csrw	mtvec,t0
  5c:	00000297          	auipc	t0,0x0
  60:	02428293          	addi	t0,t0,36 # 80 <rvtest_init>
  64:	34129073          	csrw	mepc,t0
  68:	f1402573          	csrr	a0,mhartid
  6c:	30200073          	mret
  70:	00000013          	nop
  74:	00000013          	nop
  78:	00000013          	nop
  7c:	00000013          	nop

00000080 <rvtest_init>:
  80:	feedc0b7          	lui	ra,0xfeedc
  84:	ead08093          	addi	ra,ra,-339 # feedbead <fromhost+0xfeed8dad>
  88:	ff76e137          	lui	sp,0xff76e
  8c:	f5610113          	addi	sp,sp,-170 # ff76df56 <fromhost+0xff76ae56>
  90:	7fbb71b7          	lui	gp,0x7fbb7
  94:	fab18193          	addi	gp,gp,-85 # 7fbb6fab <fromhost+0x7fbb3eab>
  98:	bfddb237          	lui	tp,0xbfddb
  9c:	7d520213          	addi	tp,tp,2005 # bfddb7d5 <fromhost+0xbfdd86d5>
  a0:	00000297          	auipc	t0,0x0
  a4:	0d828293          	addi	t0,t0,216 # 178 <rvtest_code_begin>
  a8:	00002317          	auipc	t1,0x2
  ac:	f5830313          	addi	t1,t1,-168 # 2000 <rvtest_data_begin>
  b0:	b7fbb3b7          	lui	t2,0xb7fbb
  b4:	6fa38393          	addi	t2,t2,1786 # b7fbb6fa <fromhost+0xb7fb85fa>
  b8:	5bfde437          	lui	s0,0x5bfde
  bc:	b7d40413          	addi	s0,s0,-1155 # 5bfddb7d <fromhost+0x5bfdaa7d>
  c0:	adfef4b7          	lui	s1,0xadfef
  c4:	dbe48493          	addi	s1,s1,-578 # adfeedbe <fromhost+0xadfebcbe>
  c8:	56ff7537          	lui	a0,0x56ff7
  cc:	6df50513          	addi	a0,a0,1759 # 56ff76df <fromhost+0x56ff45df>
  d0:	ab7fc5b7          	lui	a1,0xab7fc
  d4:	b6f58593          	addi	a1,a1,-1169 # ab7fbb6f <fromhost+0xab7f8a6f>
  d8:	d5bfe637          	lui	a2,0xd5bfe
  dc:	db760613          	addi	a2,a2,-585 # d5bfddb7 <fromhost+0xd5bfacb7>
  e0:	eadff6b7          	lui	a3,0xeadff
  e4:	edb68693          	addi	a3,a3,-293 # eadfeedb <fromhost+0xeadfbddb>
  e8:	f56ff737          	lui	a4,0xf56ff
  ec:	76d70713          	addi	a4,a4,1901 # f56ff76d <fromhost+0xf56fc66d>
  f0:	fab807b7          	lui	a5,0xfab80
  f4:	bb678793          	addi	a5,a5,-1098 # fab7fbb6 <fromhost+0xfab7cab6>
  f8:	7d5c0837          	lui	a6,0x7d5c0
  fc:	ddb80813          	addi	a6,a6,-549 # 7d5bfddb <fromhost+0x7d5bccdb>
 100:	beae08b7          	lui	a7,0xbeae0
 104:	eed88893          	addi	a7,a7,-275 # beadfeed <fromhost+0xbeadcded>
 108:	df570937          	lui	s2,0xdf570
 10c:	f7690913          	addi	s2,s2,-138 # df56ff76 <fromhost+0xdf56ce76>
 110:	6fab89b7          	lui	s3,0x6fab8
 114:	fbb98993          	addi	s3,s3,-69 # 6fab7fbb <fromhost+0x6fab4ebb>
 118:	b7d5ca37          	lui	s4,0xb7d5c
 11c:	fdda0a13          	addi	s4,s4,-35 # b7d5bfdd <fromhost+0xb7d58edd>
 120:	dbeaeab7          	lui	s5,0xdbeae
 124:	feea8a93          	addi	s5,s5,-18 # dbeadfee <fromhost+0xdbeaaeee>
 128:	6df57b37          	lui	s6,0x6df57
 12c:	ff7b0b13          	addi	s6,s6,-9 # 6df56ff7 <fromhost+0x6df53ef7>
 130:	b6fabbb7          	lui	s7,0xb6fab
 134:	7fbb8b93          	addi	s7,s7,2043 # b6fab7fb <fromhost+0xb6fa86fb>
 138:	db7d6c37          	lui	s8,0xdb7d6
 13c:	bfdc0c13          	addi	s8,s8,-1027 # db7d5bfd <fromhost+0xdb7d2afd>
 140:	edbebcb7          	lui	s9,0xedbeb
 144:	dfec8c93          	addi	s9,s9,-514 # edbeadfe <fromhost+0xedbe7cfe>
 148:	76df5d37          	lui	s10,0x76df5
 14c:	6ffd0d13          	addi	s10,s10,1791 # 76df56ff <fromhost+0x76df25ff>
 150:	bb6fbdb7          	lui	s11,0xbb6fb
 154:	b7fd8d93          	addi	s11,s11,-1153 # bb6fab7f <fromhost+0xbb6f7a7f>
 158:	ddb7de37          	lui	t3,0xddb7d
 15c:	5bfe0e13          	addi	t3,t3,1471 # ddb7d5bf <fromhost+0xddb7a4bf>
 160:	eedbfeb7          	lui	t4,0xeedbf
 164:	adfe8e93          	addi	t4,t4,-1313 # eedbeadf <fromhost+0xeedbb9df>
 168:	f76dff37          	lui	t5,0xf76df
 16c:	56ff0f13          	addi	t5,t5,1391 # f76df56f <fromhost+0xf76dc46f>
 170:	fbb70fb7          	lui	t6,0xfbb70
 174:	ab7f8f93          	addi	t6,t6,-1353 # fbb6fab7 <fromhost+0xfbb6c9b7>

00000178 <rvtest_code_begin>:
 178:	000020b7          	lui	ra,0x2
 17c:	20008093          	addi	ra,ra,512 # 2200 <test_1_data+0x1f0>
 180:	3000a073          	csrs	mstatus,ra
 184:	00000093          	li	ra,0
 188:	00309073          	fscsr	ra
 18c:	00003217          	auipc	tp,0x3
 190:	87420213          	addi	tp,tp,-1932 # 2a00 <begin_signature>
 194:	fff00393          	li	t2,-1
 198:	0103f357          	vsetvli	t1,t2,e32,m1,tu,mu
 19c:	00002417          	auipc	s0,0x2
 1a0:	46440413          	addi	s0,s0,1124 # 2600 <test_1_maskdata>
 1a4:	02046007          	vle32.v	v0,(s0)
 1a8:	fff00393          	li	t2,-1
 1ac:	00002297          	auipc	t0,0x2
 1b0:	e6428293          	addi	t0,t0,-412 # 2010 <test_1_data>
 1b4:	0103f057          	vsetvli	zero,t2,e32,m1,tu,mu
 1b8:	0202e087          	vle32.v	v1,(t0)
 1bc:	00400313          	li	t1,4
 1c0:	006282b3          	add	t0,t0,t1
 1c4:	0103f057          	vsetvli	zero,t2,e32,m1,tu,mu
 1c8:	0202e807          	vle32.v	v16,(t0)
 1cc:	00400313          	li	t1,4
 1d0:	006282b3          	add	t0,t0,t1
 1d4:	0103f057          	vsetvli	zero,t2,e32,m1,tu,mu
 1d8:	0202ef87          	vle32.v	v31,(t0)
 1dc:	00400313          	li	t1,4
 1e0:	006282b3          	add	t0,t0,t1
 1e4:	00800393          	li	t2,8
 1e8:	0103f357          	vsetvli	t1,t2,e32,m1,tu,mu
 1ec:	2500afd7          	vaadd.vv	v31,v16,v1,v0.t
 1f0:	fff00393          	li	t2,-1
 1f4:	0103f357          	vsetvli	t1,t2,e32,m1,tu,mu
 1f8:	02026fa7          	vse32.v	v31,(tp)
 1fc:	02000393          	li	t2,32
 200:	00720233          	add	tp,tp,t2
 204:	fff00393          	li	t2,-1
 208:	00002297          	auipc	t0,0x2
 20c:	e1428293          	addi	t0,t0,-492 # 201c <test_1_data+0xc>
 210:	0103f057          	vsetvli	zero,t2,e32,m1,tu,mu
 214:	0202e007          	vle32.v	v0,(t0)
 218:	00400313          	li	t1,4
 21c:	006282b3          	add	t0,t0,t1
 220:	0103f057          	vsetvli	zero,t2,e32,m1,tu,mu
 224:	0202e887          	vle32.v	v17,(t0)
 228:	00400313          	li	t1,4
 22c:	006282b3          	add	t0,t0,t1
 230:	0103f057          	vsetvli	zero,t2,e32,m1,tu,mu
 234:	0202ef07          	vle32.v	v30,(t0)
 238:	00400313          	li	t1,4
 23c:	006282b3          	add	t0,t0,t1
 240:	00600393          	li	t2,6
 244:	0103f357          	vsetvli	t1,t2,e32,m1,tu,mu
 248:	27102f57          	vaadd.vv	v30,v17,v0
 24c:	fff00393          	li	t2,-1
 250:	0103f357          	vsetvli	t1,t2,e32,m1,tu,mu
 254:	02026f27          	vse32.v	v30,(tp)
 258:	02000393          	li	t2,32
 25c:	00720233          	add	tp,tp,t2
 260:	fff00393          	li	t2,-1
 264:	0103f357          	vsetvli	t1,t2,e32,m1,tu,mu
 268:	00002417          	auipc	s0,0x2
 26c:	3d840413          	addi	s0,s0,984 # 2640 <test_1_maskdata+0x40>
 270:	02046007          	vle32.v	v0,(s0)
 274:	fff00393          	li	t2,-1
 278:	00002297          	auipc	t0,0x2
 27c:	db028293          	addi	t0,t0,-592 # 2028 <test_1_data+0x18>
 280:	0103f057          	vsetvli	zero,t2,e32,m1,tu,mu
 284:	0202e107          	vle32.v	v2,(t0)
 288:	00400313          	li	t1,4
 28c:	006282b3          	add	t0,t0,t1
 290:	0103f057          	vsetvli	zero,t2,e32,m1,tu,mu
 294:	0202e907          	vle32.v	v18,(t0)
 298:	00400313          	li	t1,4
 29c:	006282b3          	add	t0,t0,t1
 2a0:	0103f057          	vsetvli	zero,t2,e32,m1,tu,mu
 2a4:	0202ee87          	vle32.v	v29,(t0)
 2a8:	00400313          	li	t1,4
 2ac:	006282b3          	add	t0,t0,t1
 2b0:	00400393          	li	t2,4
 2b4:	0103f357          	vsetvli	t1,t2,e32,m1,tu,mu
 2b8:	25212ed7          	vaadd.vv	v29,v18,v2,v0.t
 2bc:	fff00393          	li	t2,-1
 2c0:	0103f357          	vsetvli	t1,t2,e32,m1,tu,mu
 2c4:	02026ea7          	vse32.v	v29,(tp)
 2c8:	02000393          	li	t2,32
 2cc:	00720233          	add	tp,tp,t2
 2d0:	fff00393          	li	t2,-1
 2d4:	00002297          	auipc	t0,0x2
 2d8:	d6028293          	addi	t0,t0,-672 # 2034 <test_1_data+0x24>
 2dc:	0103f057          	vsetvli	zero,t2,e32,m1,tu,mu
 2e0:	0202e187          	vle32.v	v3,(t0)
 2e4:	00400313          	li	t1,4
 2e8:	006282b3          	add	t0,t0,t1
 2ec:	0103f057          	vsetvli	zero,t2,e32,m1,tu,mu
 2f0:	0202e987          	vle32.v	v19,(t0)
 2f4:	00400313          	li	t1,4
 2f8:	006282b3          	add	t0,t0,t1
 2fc:	0103f057          	vsetvli	zero,t2,e32,m1,tu,mu
 300:	0202ee07          	vle32.v	v28,(t0)
 304:	00400313          	li	t1,4
 308:	006282b3          	add	t0,t0,t1
 30c:	00200393          	li	t2,2
 310:	0103f357          	vsetvli	t1,t2,e32,m1,tu,mu
 314:	2731ae57          	vaadd.vv	v28,v19,v3
 318:	fff00393          	li	t2,-1
 31c:	0103f357          	vsetvli	t1,t2,e32,m1,tu,mu
 320:	02026e27          	vse32.v	v28,(tp)
 324:	02000393          	li	t2,32
 328:	00720233          	add	tp,tp,t2
 32c:	00002097          	auipc	ra,0x2
 330:	75408093          	addi	ra,ra,1876 # 2a80 <signature_2_0>
 334:	fff00413          	li	s0,-1
 338:	010471d7          	vsetvli	gp,s0,e32,m1,tu,mu
 33c:	00002697          	auipc	a3,0x2
 340:	34468693          	addi	a3,a3,836 # 2680 <test_1_maskdata+0x80>
 344:	0206e007          	vle32.v	v0,(a3)
 348:	fff00413          	li	s0,-1
 34c:	00002117          	auipc	sp,0x2
 350:	cf410113          	addi	sp,sp,-780 # 2040 <test_1_data+0x30>
 354:	01047057          	vsetvli	zero,s0,e32,m1,tu,mu
 358:	02016207          	vle32.v	v4,(sp)
 35c:	00400193          	li	gp,4
 360:	00310133          	add	sp,sp,gp
 364:	01047057          	vsetvli	zero,s0,e32,m1,tu,mu
 368:	02016a07          	vle32.v	v20,(sp)
 36c:	00400193          	li	gp,4
 370:	00310133          	add	sp,sp,gp
 374:	01047057          	vsetvli	zero,s0,e32,m1,tu,mu
 378:	02016d87          	vle32.v	v27,(sp)
 37c:	00400193          	li	gp,4
 380:	00310133          	add	sp,sp,gp
 384:	00000413          	li	s0,0
 388:	010471d7          	vsetvli	gp,s0,e32,m1,tu,mu
 38c:	25422dd7          	vaadd.vv	v27,v20,v4,v0.t
 390:	fff00413          	li	s0,-1
 394:	010471d7          	vsetvli	gp,s0,e32,m1,tu,mu
 398:	0200eda7          	vse32.v	v27,(ra)
 39c:	02000413          	li	s0,32
 3a0:	008080b3          	add	ra,ra,s0
 3a4:	fff00413          	li	s0,-1
 3a8:	00002117          	auipc	sp,0x2
 3ac:	ca410113          	addi	sp,sp,-860 # 204c <test_1_data+0x3c>
 3b0:	01047057          	vsetvli	zero,s0,e32,m1,tu,mu
 3b4:	02016287          	vle32.v	v5,(sp)
 3b8:	00400193          	li	gp,4
 3bc:	00310133          	add	sp,sp,gp
 3c0:	01047057          	vsetvli	zero,s0,e32,m1,tu,mu
 3c4:	02016a87          	vle32.v	v21,(sp)
 3c8:	00400193          	li	gp,4
 3cc:	00310133          	add	sp,sp,gp
 3d0:	01047057          	vsetvli	zero,s0,e32,m1,tu,mu
 3d4:	02016d07          	vle32.v	v26,(sp)
 3d8:	00400193          	li	gp,4
 3dc:	00310133          	add	sp,sp,gp
 3e0:	00800413          	li	s0,8
 3e4:	010471d7          	vsetvli	gp,s0,e32,m1,tu,mu
 3e8:	2752ad57          	vaadd.vv	v26,v21,v5
 3ec:	fff00413          	li	s0,-1
 3f0:	010471d7          	vsetvli	gp,s0,e32,m1,tu,mu
 3f4:	0200ed27          	vse32.v	v26,(ra)
 3f8:	02000413          	li	s0,32
 3fc:	008080b3          	add	ra,ra,s0
 400:	fff00413          	li	s0,-1
 404:	010471d7          	vsetvli	gp,s0,e32,m1,tu,mu
 408:	00002697          	auipc	a3,0x2
 40c:	2b868693          	addi	a3,a3,696 # 26c0 <test_1_maskdata+0xc0>
 410:	0206e007          	vle32.v	v0,(a3)
 414:	fff00413          	li	s0,-1
 418:	00002117          	auipc	sp,0x2
 41c:	c4010113          	addi	sp,sp,-960 # 2058 <test_1_data+0x48>
 420:	01047057          	vsetvli	zero,s0,e32,m1,tu,mu
 424:	02016307          	vle32.v	v6,(sp)
 428:	00400193          	li	gp,4
 42c:	00310133          	add	sp,sp,gp
 430:	01047057          	vsetvli	zero,s0,e32,m1,tu,mu
 434:	02016b07          	vle32.v	v22,(sp)
 438:	00400193          	li	gp,4
 43c:	00310133          	add	sp,sp,gp
 440:	01047057          	vsetvli	zero,s0,e32,m1,tu,mu
 444:	02016c87          	vle32.v	v25,(sp)
 448:	00400193          	li	gp,4
 44c:	00310133          	add	sp,sp,gp
 450:	00600413          	li	s0,6
 454:	010471d7          	vsetvli	gp,s0,e32,m1,tu,mu
 458:	25632cd7          	vaadd.vv	v25,v22,v6,v0.t
 45c:	fff00413          	li	s0,-1
 460:	010471d7          	vsetvli	gp,s0,e32,m1,tu,mu
 464:	0200eca7          	vse32.v	v25,(ra)
 468:	02000413          	li	s0,32
 46c:	008080b3          	add	ra,ra,s0
 470:	fff00413          	li	s0,-1
 474:	00002117          	auipc	sp,0x2
 478:	bf010113          	addi	sp,sp,-1040 # 2064 <test_1_data+0x54>
 47c:	01047057          	vsetvli	zero,s0,e32,m1,tu,mu
 480:	02016387          	vle32.v	v7,(sp)
 484:	00400193          	li	gp,4
 488:	00310133          	add	sp,sp,gp
 48c:	01047057          	vsetvli	zero,s0,e32,m1,tu,mu
 490:	02016b87          	vle32.v	v23,(sp)
 494:	00400193          	li	gp,4
 498:	00310133          	add	sp,sp,gp
 49c:	01047057          	vsetvli	zero,s0,e32,m1,tu,mu
 4a0:	02016c07          	vle32.v	v24,(sp)
 4a4:	00400193          	li	gp,4
 4a8:	00310133          	add	sp,sp,gp
 4ac:	00400413          	li	s0,4
 4b0:	010471d7          	vsetvli	gp,s0,e32,m1,tu,mu
 4b4:	2773ac57          	vaadd.vv	v24,v23,v7
 4b8:	fff00413          	li	s0,-1
 4bc:	010471d7          	vsetvli	gp,s0,e32,m1,tu,mu
 4c0:	0200ec27          	vse32.v	v24,(ra)
 4c4:	02000413          	li	s0,32
 4c8:	008080b3          	add	ra,ra,s0
 4cc:	00002097          	auipc	ra,0x2
 4d0:	63408093          	addi	ra,ra,1588 # 2b00 <signature_3_0>
 4d4:	fff00213          	li	tp,-1
 4d8:	010271d7          	vsetvli	gp,tp,e32,m1,tu,mu
 4dc:	00002617          	auipc	a2,0x2
 4e0:	22460613          	addi	a2,a2,548 # 2700 <test_1_maskdata+0x100>
 4e4:	02066007          	vle32.v	v0,(a2)
 4e8:	fff00213          	li	tp,-1
 4ec:	00002117          	auipc	sp,0x2
 4f0:	b8410113          	addi	sp,sp,-1148 # 2070 <test_1_data+0x60>
 4f4:	01027057          	vsetvli	zero,tp,e32,m1,tu,mu
 4f8:	02016407          	vle32.v	v8,(sp)
 4fc:	00400193          	li	gp,4
 500:	00310133          	add	sp,sp,gp
 504:	01027057          	vsetvli	zero,tp,e32,m1,tu,mu
 508:	02016c07          	vle32.v	v24,(sp)
 50c:	00400193          	li	gp,4
 510:	00310133          	add	sp,sp,gp
 514:	01027057          	vsetvli	zero,tp,e32,m1,tu,mu
 518:	02016b87          	vle32.v	v23,(sp)
 51c:	00400193          	li	gp,4
 520:	00310133          	add	sp,sp,gp
 524:	00200213          	li	tp,2
 528:	010271d7          	vsetvli	gp,tp,e32,m1,tu,mu
 52c:	25842bd7          	vaadd.vv	v23,v24,v8,v0.t
 530:	fff00213          	li	tp,-1
 534:	010271d7          	vsetvli	gp,tp,e32,m1,tu,mu
 538:	0200eba7          	vse32.v	v23,(ra)
 53c:	02000213          	li	tp,32
 540:	004080b3          	add	ra,ra,tp
 544:	fff00213          	li	tp,-1
 548:	00002117          	auipc	sp,0x2
 54c:	b3410113          	addi	sp,sp,-1228 # 207c <test_1_data+0x6c>
 550:	01027057          	vsetvli	zero,tp,e32,m1,tu,mu
 554:	02016487          	vle32.v	v9,(sp)
 558:	00400193          	li	gp,4
 55c:	00310133          	add	sp,sp,gp
 560:	01027057          	vsetvli	zero,tp,e32,m1,tu,mu
 564:	02016c87          	vle32.v	v25,(sp)
 568:	00400193          	li	gp,4
 56c:	00310133          	add	sp,sp,gp
 570:	01027057          	vsetvli	zero,tp,e32,m1,tu,mu
 574:	02016b07          	vle32.v	v22,(sp)
 578:	00400193          	li	gp,4
 57c:	00310133          	add	sp,sp,gp
 580:	00000213          	li	tp,0
 584:	010271d7          	vsetvli	gp,tp,e32,m1,tu,mu
 588:	2794ab57          	vaadd.vv	v22,v25,v9
 58c:	fff00213          	li	tp,-1
 590:	010271d7          	vsetvli	gp,tp,e32,m1,tu,mu
 594:	0200eb27          	vse32.v	v22,(ra)
 598:	02000213          	li	tp,32
 59c:	004080b3          	add	ra,ra,tp
 5a0:	fff00213          	li	tp,-1
 5a4:	010271d7          	vsetvli	gp,tp,e32,m1,tu,mu
 5a8:	00002617          	auipc	a2,0x2
 5ac:	19860613          	addi	a2,a2,408 # 2740 <test_1_maskdata+0x140>
 5b0:	02066007          	vle32.v	v0,(a2)
 5b4:	fff00213          	li	tp,-1
 5b8:	00002117          	auipc	sp,0x2
 5bc:	ad010113          	addi	sp,sp,-1328 # 2088 <test_1_data+0x78>
 5c0:	01027057          	vsetvli	zero,tp,e32,m1,tu,mu
 5c4:	02016507          	vle32.v	v10,(sp)
 5c8:	00400193          	li	gp,4
 5cc:	00310133          	add	sp,sp,gp
 5d0:	01027057          	vsetvli	zero,tp,e32,m1,tu,mu
 5d4:	02016d07          	vle32.v	v26,(sp)
 5d8:	00400193          	li	gp,4
 5dc:	00310133          	add	sp,sp,gp
 5e0:	01027057          	vsetvli	zero,tp,e32,m1,tu,mu
 5e4:	02016a87          	vle32.v	v21,(sp)
 5e8:	00400193          	li	gp,4
 5ec:	00310133          	add	sp,sp,gp
 5f0:	00800213          	li	tp,8
 5f4:	010271d7          	vsetvli	gp,tp,e32,m1,tu,mu
 5f8:	25a52ad7          	vaadd.vv	v21,v26,v10,v0.t
 5fc:	fff00213          	li	tp,-1
 600:	010271d7          	vsetvli	gp,tp,e32,m1,tu,mu
 604:	0200eaa7          	vse32.v	v21,(ra)
 608:	02000213          	li	tp,32
 60c:	004080b3          	add	ra,ra,tp
 610:	fff00213          	li	tp,-1
 614:	00002117          	auipc	sp,0x2
 618:	a8010113          	addi	sp,sp,-1408 # 2094 <test_1_data+0x84>
 61c:	01027057          	vsetvli	zero,tp,e32,m1,tu,mu
 620:	02016587          	vle32.v	v11,(sp)
 624:	00400193          	li	gp,4
 628:	00310133          	add	sp,sp,gp
 62c:	01027057          	vsetvli	zero,tp,e32,m1,tu,mu
 630:	02016d87          	vle32.v	v27,(sp)
 634:	00400193          	li	gp,4
 638:	00310133          	add	sp,sp,gp
 63c:	01027057          	vsetvli	zero,tp,e32,m1,tu,mu
 640:	02016a07          	vle32.v	v20,(sp)
 644:	00400193          	li	gp,4
 648:	00310133          	add	sp,sp,gp
 64c:	00600213          	li	tp,6
 650:	010271d7          	vsetvli	gp,tp,e32,m1,tu,mu
 654:	27b5aa57          	vaadd.vv	v20,v27,v11
 658:	fff00213          	li	tp,-1
 65c:	010271d7          	vsetvli	gp,tp,e32,m1,tu,mu
 660:	0200ea27          	vse32.v	v20,(ra)
 664:	02000213          	li	tp,32
 668:	004080b3          	add	ra,ra,tp
 66c:	00002297          	auipc	t0,0x2
 670:	51428293          	addi	t0,t0,1300 # 2b80 <signature_4_0>
 674:	fff00413          	li	s0,-1
 678:	010473d7          	vsetvli	t2,s0,e32,m1,tu,mu
 67c:	00002497          	auipc	s1,0x2
 680:	10448493          	addi	s1,s1,260 # 2780 <test_1_maskdata+0x180>
 684:	0204e007          	vle32.v	v0,(s1)
 688:	fff00413          	li	s0,-1
 68c:	00002317          	auipc	t1,0x2
 690:	a1430313          	addi	t1,t1,-1516 # 20a0 <test_1_data+0x90>
 694:	01047057          	vsetvli	zero,s0,e32,m1,tu,mu
 698:	02036607          	vle32.v	v12,(t1)
 69c:	00400393          	li	t2,4
 6a0:	00730333          	add	t1,t1,t2
 6a4:	01047057          	vsetvli	zero,s0,e32,m1,tu,mu
 6a8:	02036e07          	vle32.v	v28,(t1)
 6ac:	00400393          	li	t2,4
 6b0:	00730333          	add	t1,t1,t2
 6b4:	01047057          	vsetvli	zero,s0,e32,m1,tu,mu
 6b8:	02036987          	vle32.v	v19,(t1)
 6bc:	00400393          	li	t2,4
 6c0:	00730333          	add	t1,t1,t2
 6c4:	00400413          	li	s0,4
 6c8:	010473d7          	vsetvli	t2,s0,e32,m1,tu,mu
 6cc:	25c629d7          	vaadd.vv	v19,v28,v12,v0.t
 6d0:	fff00413          	li	s0,-1
 6d4:	010473d7          	vsetvli	t2,s0,e32,m1,tu,mu
 6d8:	0202e9a7          	vse32.v	v19,(t0)
 6dc:	02000413          	li	s0,32
 6e0:	008282b3          	add	t0,t0,s0
 6e4:	fff00413          	li	s0,-1
 6e8:	00002317          	auipc	t1,0x2
 6ec:	9c430313          	addi	t1,t1,-1596 # 20ac <test_1_data+0x9c>
 6f0:	01047057          	vsetvli	zero,s0,e32,m1,tu,mu
 6f4:	02036687          	vle32.v	v13,(t1)
 6f8:	00400393          	li	t2,4
 6fc:	00730333          	add	t1,t1,t2
 700:	01047057          	vsetvli	zero,s0,e32,m1,tu,mu
 704:	02036e87          	vle32.v	v29,(t1)
 708:	00400393          	li	t2,4
 70c:	00730333          	add	t1,t1,t2
 710:	01047057          	vsetvli	zero,s0,e32,m1,tu,mu
 714:	02036907          	vle32.v	v18,(t1)
 718:	00400393          	li	t2,4
 71c:	00730333          	add	t1,t1,t2
 720:	00200413          	li	s0,2
 724:	010473d7          	vsetvli	t2,s0,e32,m1,tu,mu
 728:	27d6a957          	vaadd.vv	v18,v29,v13
 72c:	fff00413          	li	s0,-1
 730:	010473d7          	vsetvli	t2,s0,e32,m1,tu,mu
 734:	0202e927          	vse32.v	v18,(t0)
 738:	02000413          	li	s0,32
 73c:	008282b3          	add	t0,t0,s0
 740:	fff00413          	li	s0,-1
 744:	010473d7          	vsetvli	t2,s0,e32,m1,tu,mu
 748:	00002497          	auipc	s1,0x2
 74c:	07848493          	addi	s1,s1,120 # 27c0 <test_1_maskdata+0x1c0>
 750:	0204e007          	vle32.v	v0,(s1)
 754:	fff00413          	li	s0,-1
 758:	00002317          	auipc	t1,0x2
 75c:	96030313          	addi	t1,t1,-1696 # 20b8 <test_1_data+0xa8>
 760:	01047057          	vsetvli	zero,s0,e32,m1,tu,mu
 764:	02036707          	vle32.v	v14,(t1)
 768:	00400393          	li	t2,4
 76c:	00730333          	add	t1,t1,t2
 770:	01047057          	vsetvli	zero,s0,e32,m1,tu,mu
 774:	02036f07          	vle32.v	v30,(t1)
 778:	00400393          	li	t2,4
 77c:	00730333          	add	t1,t1,t2
 780:	01047057          	vsetvli	zero,s0,e32,m1,tu,mu
 784:	02036887          	vle32.v	v17,(t1)
 788:	00400393          	li	t2,4
 78c:	00730333          	add	t1,t1,t2
 790:	00000413          	li	s0,0
 794:	010473d7          	vsetvli	t2,s0,e32,m1,tu,mu
 798:	25e728d7          	vaadd.vv	v17,v30,v14,v0.t
 79c:	fff00413          	li	s0,-1
 7a0:	010473d7          	vsetvli	t2,s0,e32,m1,tu,mu
 7a4:	0202e8a7          	vse32.v	v17,(t0)
 7a8:	02000413          	li	s0,32
 7ac:	008282b3          	add	t0,t0,s0
 7b0:	fff00413          	li	s0,-1
 7b4:	00002317          	auipc	t1,0x2
 7b8:	91030313          	addi	t1,t1,-1776 # 20c4 <test_1_data+0xb4>
 7bc:	01047057          	vsetvli	zero,s0,e32,m1,tu,mu
 7c0:	02036787          	vle32.v	v15,(t1)
 7c4:	00400393          	li	t2,4
 7c8:	00730333          	add	t1,t1,t2
 7cc:	01047057          	vsetvli	zero,s0,e32,m1,tu,mu
 7d0:	02036f87          	vle32.v	v31,(t1)
 7d4:	00400393          	li	t2,4
 7d8:	00730333          	add	t1,t1,t2
 7dc:	01047057          	vsetvli	zero,s0,e32,m1,tu,mu
 7e0:	02036807          	vle32.v	v16,(t1)
 7e4:	00400393          	li	t2,4
 7e8:	00730333          	add	t1,t1,t2
 7ec:	00800413          	li	s0,8
 7f0:	010473d7          	vsetvli	t2,s0,e32,m1,tu,mu
 7f4:	27f7a857          	vaadd.vv	v16,v31,v15
 7f8:	fff00413          	li	s0,-1
 7fc:	010473d7          	vsetvli	t2,s0,e32,m1,tu,mu
 800:	0202e827          	vse32.v	v16,(t0)
 804:	02000413          	li	s0,32
 808:	008282b3          	add	t0,t0,s0
 80c:	00002097          	auipc	ra,0x2
 810:	3f408093          	addi	ra,ra,1012 # 2c00 <signature_5_0>
 814:	fff00213          	li	tp,-1
 818:	010271d7          	vsetvli	gp,tp,e32,m1,tu,mu
 81c:	00002297          	auipc	t0,0x2
 820:	fe428293          	addi	t0,t0,-28 # 2800 <test_1_maskdata+0x200>
 824:	0202e007          	vle32.v	v0,(t0)
 828:	fff00213          	li	tp,-1
 82c:	00002117          	auipc	sp,0x2
 830:	8a410113          	addi	sp,sp,-1884 # 20d0 <test_1_data+0xc0>
 834:	01027057          	vsetvli	zero,tp,e32,m1,tu,mu
 838:	02016807          	vle32.v	v16,(sp)
 83c:	00400193          	li	gp,4
 840:	00310133          	add	sp,sp,gp
 844:	01027057          	vsetvli	zero,tp,e32,m1,tu,mu
 848:	02016087          	vle32.v	v1,(sp)
 84c:	00400193          	li	gp,4
 850:	00310133          	add	sp,sp,gp
 854:	01027057          	vsetvli	zero,tp,e32,m1,tu,mu
 858:	02016787          	vle32.v	v15,(sp)
 85c:	00400193          	li	gp,4
 860:	00310133          	add	sp,sp,gp
 864:	00600213          	li	tp,6
 868:	010271d7          	vsetvli	gp,tp,e32,m1,tu,mu
 86c:	241827d7          	vaadd.vv	v15,v1,v16,v0.t
 870:	fff00213          	li	tp,-1
 874:	010271d7          	vsetvli	gp,tp,e32,m1,tu,mu
 878:	0200e7a7          	vse32.v	v15,(ra)
 87c:	02000213          	li	tp,32
 880:	004080b3          	add	ra,ra,tp
 884:	fff00213          	li	tp,-1
 888:	00002117          	auipc	sp,0x2
 88c:	85410113          	addi	sp,sp,-1964 # 20dc <test_1_data+0xcc>
 890:	01027057          	vsetvli	zero,tp,e32,m1,tu,mu
 894:	02016887          	vle32.v	v17,(sp)
 898:	00400193          	li	gp,4
 89c:	00310133          	add	sp,sp,gp
 8a0:	01027057          	vsetvli	zero,tp,e32,m1,tu,mu
 8a4:	02016007          	vle32.v	v0,(sp)
 8a8:	00400193          	li	gp,4
 8ac:	00310133          	add	sp,sp,gp
 8b0:	01027057          	vsetvli	zero,tp,e32,m1,tu,mu
 8b4:	02016707          	vle32.v	v14,(sp)
 8b8:	00400193          	li	gp,4
 8bc:	00310133          	add	sp,sp,gp
 8c0:	00400213          	li	tp,4
 8c4:	010271d7          	vsetvli	gp,tp,e32,m1,tu,mu
 8c8:	2608a757          	vaadd.vv	v14,v0,v17
 8cc:	fff00213          	li	tp,-1
 8d0:	010271d7          	vsetvli	gp,tp,e32,m1,tu,mu
 8d4:	0200e727          	vse32.v	v14,(ra)
 8d8:	02000213          	li	tp,32
 8dc:	004080b3          	add	ra,ra,tp
 8e0:	fff00213          	li	tp,-1
 8e4:	010271d7          	vsetvli	gp,tp,e32,m1,tu,mu
 8e8:	00002297          	auipc	t0,0x2
 8ec:	f5828293          	addi	t0,t0,-168 # 2840 <test_1_maskdata+0x240>
 8f0:	0202e007          	vle32.v	v0,(t0)
 8f4:	fff00213          	li	tp,-1
 8f8:	00001117          	auipc	sp,0x1
 8fc:	7f010113          	addi	sp,sp,2032 # 20e8 <test_1_data+0xd8>
 900:	01027057          	vsetvli	zero,tp,e32,m1,tu,mu
 904:	02016907          	vle32.v	v18,(sp)
 908:	00400193          	li	gp,4
 90c:	00310133          	add	sp,sp,gp
 910:	01027057          	vsetvli	zero,tp,e32,m1,tu,mu
 914:	02016107          	vle32.v	v2,(sp)
 918:	00400193          	li	gp,4
 91c:	00310133          	add	sp,sp,gp
 920:	01027057          	vsetvli	zero,tp,e32,m1,tu,mu
 924:	02016687          	vle32.v	v13,(sp)
 928:	00400193          	li	gp,4
 92c:	00310133          	add	sp,sp,gp
 930:	00200213          	li	tp,2
 934:	010271d7          	vsetvli	gp,tp,e32,m1,tu,mu
 938:	242926d7          	vaadd.vv	v13,v2,v18,v0.t
 93c:	fff00213          	li	tp,-1
 940:	010271d7          	vsetvli	gp,tp,e32,m1,tu,mu
 944:	0200e6a7          	vse32.v	v13,(ra)
 948:	02000213          	li	tp,32
 94c:	004080b3          	add	ra,ra,tp
 950:	fff00213          	li	tp,-1
 954:	00001117          	auipc	sp,0x1
 958:	7a010113          	addi	sp,sp,1952 # 20f4 <test_1_data+0xe4>
 95c:	01027057          	vsetvli	zero,tp,e32,m1,tu,mu
 960:	02016987          	vle32.v	v19,(sp)
 964:	00400193          	li	gp,4
 968:	00310133          	add	sp,sp,gp
 96c:	01027057          	vsetvli	zero,tp,e32,m1,tu,mu
 970:	02016187          	vle32.v	v3,(sp)
 974:	00400193          	li	gp,4
 978:	00310133          	add	sp,sp,gp
 97c:	01027057          	vsetvli	zero,tp,e32,m1,tu,mu
 980:	02016607          	vle32.v	v12,(sp)
 984:	00400193          	li	gp,4
 988:	00310133          	add	sp,sp,gp
 98c:	00000213          	li	tp,0
 990:	010271d7          	vsetvli	gp,tp,e32,m1,tu,mu
 994:	2639a657          	vaadd.vv	v12,v3,v19
 998:	fff00213          	li	tp,-1
 99c:	010271d7          	vsetvli	gp,tp,e32,m1,tu,mu
 9a0:	0200e627          	vse32.v	v12,(ra)
 9a4:	02000213          	li	tp,32
 9a8:	004080b3          	add	ra,ra,tp
 9ac:	00002097          	auipc	ra,0x2
 9b0:	2d408093          	addi	ra,ra,724 # 2c80 <signature_6_0>
 9b4:	fff00213          	li	tp,-1
 9b8:	010271d7          	vsetvli	gp,tp,e32,m1,tu,mu
 9bc:	00002297          	auipc	t0,0x2
 9c0:	ec428293          	addi	t0,t0,-316 # 2880 <test_1_maskdata+0x280>
 9c4:	0202e007          	vle32.v	v0,(t0)
 9c8:	fff00213          	li	tp,-1
 9cc:	00001117          	auipc	sp,0x1
 9d0:	73410113          	addi	sp,sp,1844 # 2100 <test_1_data+0xf0>
 9d4:	01027057          	vsetvli	zero,tp,e32,m1,tu,mu
 9d8:	02016a07          	vle32.v	v20,(sp)
 9dc:	00400193          	li	gp,4
 9e0:	00310133          	add	sp,sp,gp
 9e4:	01027057          	vsetvli	zero,tp,e32,m1,tu,mu
 9e8:	02016207          	vle32.v	v4,(sp)
 9ec:	00400193          	li	gp,4
 9f0:	00310133          	add	sp,sp,gp
 9f4:	01027057          	vsetvli	zero,tp,e32,m1,tu,mu
 9f8:	02016587          	vle32.v	v11,(sp)
 9fc:	00400193          	li	gp,4
 a00:	00310133          	add	sp,sp,gp
 a04:	00800213          	li	tp,8
 a08:	010271d7          	vsetvli	gp,tp,e32,m1,tu,mu
 a0c:	244a25d7          	vaadd.vv	v11,v4,v20,v0.t
 a10:	fff00213          	li	tp,-1
 a14:	010271d7          	vsetvli	gp,tp,e32,m1,tu,mu
 a18:	0200e5a7          	vse32.v	v11,(ra)
 a1c:	02000213          	li	tp,32
 a20:	004080b3          	add	ra,ra,tp
 a24:	fff00213          	li	tp,-1
 a28:	00001117          	auipc	sp,0x1
 a2c:	6e410113          	addi	sp,sp,1764 # 210c <test_1_data+0xfc>
 a30:	01027057          	vsetvli	zero,tp,e32,m1,tu,mu
 a34:	02016a87          	vle32.v	v21,(sp)
 a38:	00400193          	li	gp,4
 a3c:	00310133          	add	sp,sp,gp
 a40:	01027057          	vsetvli	zero,tp,e32,m1,tu,mu
 a44:	02016287          	vle32.v	v5,(sp)
 a48:	00400193          	li	gp,4
 a4c:	00310133          	add	sp,sp,gp
 a50:	01027057          	vsetvli	zero,tp,e32,m1,tu,mu
 a54:	02016507          	vle32.v	v10,(sp)
 a58:	00400193          	li	gp,4
 a5c:	00310133          	add	sp,sp,gp
 a60:	00600213          	li	tp,6
 a64:	010271d7          	vsetvli	gp,tp,e32,m1,tu,mu
 a68:	265aa557          	vaadd.vv	v10,v5,v21
 a6c:	fff00213          	li	tp,-1
 a70:	010271d7          	vsetvli	gp,tp,e32,m1,tu,mu
 a74:	0200e527          	vse32.v	v10,(ra)
 a78:	02000213          	li	tp,32
 a7c:	004080b3          	add	ra,ra,tp
 a80:	fff00213          	li	tp,-1
 a84:	010271d7          	vsetvli	gp,tp,e32,m1,tu,mu
 a88:	00002297          	auipc	t0,0x2
 a8c:	e3828293          	addi	t0,t0,-456 # 28c0 <test_1_maskdata+0x2c0>
 a90:	0202e007          	vle32.v	v0,(t0)
 a94:	fff00213          	li	tp,-1
 a98:	00001117          	auipc	sp,0x1
 a9c:	68010113          	addi	sp,sp,1664 # 2118 <test_1_data+0x108>
 aa0:	01027057          	vsetvli	zero,tp,e32,m1,tu,mu
 aa4:	02016b07          	vle32.v	v22,(sp)
 aa8:	00400193          	li	gp,4
 aac:	00310133          	add	sp,sp,gp
 ab0:	01027057          	vsetvli	zero,tp,e32,m1,tu,mu
 ab4:	02016307          	vle32.v	v6,(sp)
 ab8:	00400193          	li	gp,4
 abc:	00310133          	add	sp,sp,gp
 ac0:	01027057          	vsetvli	zero,tp,e32,m1,tu,mu
 ac4:	02016487          	vle32.v	v9,(sp)
 ac8:	00400193          	li	gp,4
 acc:	00310133          	add	sp,sp,gp
 ad0:	00400213          	li	tp,4
 ad4:	010271d7          	vsetvli	gp,tp,e32,m1,tu,mu
 ad8:	246b24d7          	vaadd.vv	v9,v6,v22,v0.t
 adc:	fff00213          	li	tp,-1
 ae0:	010271d7          	vsetvli	gp,tp,e32,m1,tu,mu
 ae4:	0200e4a7          	vse32.v	v9,(ra)
 ae8:	02000213          	li	tp,32
 aec:	004080b3          	add	ra,ra,tp
 af0:	fff00213          	li	tp,-1
 af4:	00001117          	auipc	sp,0x1
 af8:	63010113          	addi	sp,sp,1584 # 2124 <test_1_data+0x114>
 afc:	01027057          	vsetvli	zero,tp,e32,m1,tu,mu
 b00:	02016b87          	vle32.v	v23,(sp)
 b04:	00400193          	li	gp,4
 b08:	00310133          	add	sp,sp,gp
 b0c:	01027057          	vsetvli	zero,tp,e32,m1,tu,mu
 b10:	02016387          	vle32.v	v7,(sp)
 b14:	00400193          	li	gp,4
 b18:	00310133          	add	sp,sp,gp
 b1c:	01027057          	vsetvli	zero,tp,e32,m1,tu,mu
 b20:	02016407          	vle32.v	v8,(sp)
 b24:	00400193          	li	gp,4
 b28:	00310133          	add	sp,sp,gp
 b2c:	00200213          	li	tp,2
 b30:	010271d7          	vsetvli	gp,tp,e32,m1,tu,mu
 b34:	267ba457          	vaadd.vv	v8,v7,v23
 b38:	fff00213          	li	tp,-1
 b3c:	010271d7          	vsetvli	gp,tp,e32,m1,tu,mu
 b40:	0200e427          	vse32.v	v8,(ra)
 b44:	02000213          	li	tp,32
 b48:	004080b3          	add	ra,ra,tp
 b4c:	00002097          	auipc	ra,0x2
 b50:	1b408093          	addi	ra,ra,436 # 2d00 <signature_7_0>
 b54:	fff00413          	li	s0,-1
 b58:	010471d7          	vsetvli	gp,s0,e32,m1,tu,mu
 b5c:	00002497          	auipc	s1,0x2
 b60:	da448493          	addi	s1,s1,-604 # 2900 <test_1_maskdata+0x300>
 b64:	0204e007          	vle32.v	v0,(s1)
 b68:	fff00413          	li	s0,-1
 b6c:	00001117          	auipc	sp,0x1
 b70:	5c410113          	addi	sp,sp,1476 # 2130 <test_1_data+0x120>
 b74:	01047057          	vsetvli	zero,s0,e32,m1,tu,mu
 b78:	02016c07          	vle32.v	v24,(sp)
 b7c:	00400193          	li	gp,4
 b80:	00310133          	add	sp,sp,gp
 b84:	01047057          	vsetvli	zero,s0,e32,m1,tu,mu
 b88:	02016407          	vle32.v	v8,(sp)
 b8c:	00400193          	li	gp,4
 b90:	00310133          	add	sp,sp,gp
 b94:	01047057          	vsetvli	zero,s0,e32,m1,tu,mu
 b98:	02016387          	vle32.v	v7,(sp)
 b9c:	00400193          	li	gp,4
 ba0:	00310133          	add	sp,sp,gp
 ba4:	00000413          	li	s0,0
 ba8:	010471d7          	vsetvli	gp,s0,e32,m1,tu,mu
 bac:	248c23d7          	vaadd.vv	v7,v8,v24,v0.t
 bb0:	fff00413          	li	s0,-1
 bb4:	010471d7          	vsetvli	gp,s0,e32,m1,tu,mu
 bb8:	0200e3a7          	vse32.v	v7,(ra)
 bbc:	02000413          	li	s0,32
 bc0:	008080b3          	add	ra,ra,s0
 bc4:	fff00413          	li	s0,-1
 bc8:	00001117          	auipc	sp,0x1
 bcc:	57410113          	addi	sp,sp,1396 # 213c <test_1_data+0x12c>
 bd0:	01047057          	vsetvli	zero,s0,e32,m1,tu,mu
 bd4:	02016c87          	vle32.v	v25,(sp)
 bd8:	00400193          	li	gp,4
 bdc:	00310133          	add	sp,sp,gp
 be0:	01047057          	vsetvli	zero,s0,e32,m1,tu,mu
 be4:	02016487          	vle32.v	v9,(sp)
 be8:	00400193          	li	gp,4
 bec:	00310133          	add	sp,sp,gp
 bf0:	01047057          	vsetvli	zero,s0,e32,m1,tu,mu
 bf4:	02016307          	vle32.v	v6,(sp)
 bf8:	00400193          	li	gp,4
 bfc:	00310133          	add	sp,sp,gp
 c00:	00800413          	li	s0,8
 c04:	010471d7          	vsetvli	gp,s0,e32,m1,tu,mu
 c08:	269ca357          	vaadd.vv	v6,v9,v25
 c0c:	fff00413          	li	s0,-1
 c10:	010471d7          	vsetvli	gp,s0,e32,m1,tu,mu
 c14:	0200e327          	vse32.v	v6,(ra)
 c18:	02000413          	li	s0,32
 c1c:	008080b3          	add	ra,ra,s0
 c20:	fff00413          	li	s0,-1
 c24:	010471d7          	vsetvli	gp,s0,e32,m1,tu,mu
 c28:	00002497          	auipc	s1,0x2
 c2c:	d1848493          	addi	s1,s1,-744 # 2940 <test_1_maskdata+0x340>
 c30:	0204e007          	vle32.v	v0,(s1)
 c34:	fff00413          	li	s0,-1
 c38:	00001117          	auipc	sp,0x1
 c3c:	51010113          	addi	sp,sp,1296 # 2148 <test_1_data+0x138>
 c40:	01047057          	vsetvli	zero,s0,e32,m1,tu,mu
 c44:	02016d07          	vle32.v	v26,(sp)
 c48:	00400193          	li	gp,4
 c4c:	00310133          	add	sp,sp,gp
 c50:	01047057          	vsetvli	zero,s0,e32,m1,tu,mu
 c54:	02016507          	vle32.v	v10,(sp)
 c58:	00400193          	li	gp,4
 c5c:	00310133          	add	sp,sp,gp
 c60:	01047057          	vsetvli	zero,s0,e32,m1,tu,mu
 c64:	02016287          	vle32.v	v5,(sp)
 c68:	00400193          	li	gp,4
 c6c:	00310133          	add	sp,sp,gp
 c70:	00600413          	li	s0,6
 c74:	010471d7          	vsetvli	gp,s0,e32,m1,tu,mu
 c78:	24ad22d7          	vaadd.vv	v5,v10,v26,v0.t
 c7c:	fff00413          	li	s0,-1
 c80:	010471d7          	vsetvli	gp,s0,e32,m1,tu,mu
 c84:	0200e2a7          	vse32.v	v5,(ra)
 c88:	02000413          	li	s0,32
 c8c:	008080b3          	add	ra,ra,s0
 c90:	fff00413          	li	s0,-1
 c94:	00001117          	auipc	sp,0x1
 c98:	4c010113          	addi	sp,sp,1216 # 2154 <test_1_data+0x144>
 c9c:	01047057          	vsetvli	zero,s0,e32,m1,tu,mu
 ca0:	02016d87          	vle32.v	v27,(sp)
 ca4:	00400193          	li	gp,4
 ca8:	00310133          	add	sp,sp,gp
 cac:	01047057          	vsetvli	zero,s0,e32,m1,tu,mu
 cb0:	02016587          	vle32.v	v11,(sp)
 cb4:	00400193          	li	gp,4
 cb8:	00310133          	add	sp,sp,gp
 cbc:	01047057          	vsetvli	zero,s0,e32,m1,tu,mu
 cc0:	02016207          	vle32.v	v4,(sp)
 cc4:	00400193          	li	gp,4
 cc8:	00310133          	add	sp,sp,gp
 ccc:	00400413          	li	s0,4
 cd0:	010471d7          	vsetvli	gp,s0,e32,m1,tu,mu
 cd4:	26bda257          	vaadd.vv	v4,v11,v27
 cd8:	fff00413          	li	s0,-1
 cdc:	010471d7          	vsetvli	gp,s0,e32,m1,tu,mu
 ce0:	0200e227          	vse32.v	v4,(ra)
 ce4:	02000413          	li	s0,32
 ce8:	008080b3          	add	ra,ra,s0
 cec:	00002217          	auipc	tp,0x2
 cf0:	09420213          	addi	tp,tp,148 # 2d80 <signature_8_0>
 cf4:	fff00393          	li	t2,-1
 cf8:	0103f357          	vsetvli	t1,t2,e32,m1,tu,mu
 cfc:	00002417          	auipc	s0,0x2
 d00:	c8440413          	addi	s0,s0,-892 # 2980 <test_1_maskdata+0x380>
 d04:	02046007          	vle32.v	v0,(s0)
 d08:	fff00393          	li	t2,-1
 d0c:	00001297          	auipc	t0,0x1
 d10:	45428293          	addi	t0,t0,1108 # 2160 <test_1_data+0x150>
 d14:	0103f057          	vsetvli	zero,t2,e32,m1,tu,mu
 d18:	0202ee07          	vle32.v	v28,(t0)
 d1c:	00400313          	li	t1,4
 d20:	006282b3          	add	t0,t0,t1
 d24:	0103f057          	vsetvli	zero,t2,e32,m1,tu,mu
 d28:	0202e607          	vle32.v	v12,(t0)
 d2c:	00400313          	li	t1,4
 d30:	006282b3          	add	t0,t0,t1
 d34:	0103f057          	vsetvli	zero,t2,e32,m1,tu,mu
 d38:	0202e187          	vle32.v	v3,(t0)
 d3c:	00400313          	li	t1,4
 d40:	006282b3          	add	t0,t0,t1
 d44:	00200393          	li	t2,2
 d48:	0103f357          	vsetvli	t1,t2,e32,m1,tu,mu
 d4c:	24ce21d7          	vaadd.vv	v3,v12,v28,v0.t
 d50:	fff00393          	li	t2,-1
 d54:	0103f357          	vsetvli	t1,t2,e32,m1,tu,mu
 d58:	020261a7          	vse32.v	v3,(tp)
 d5c:	02000393          	li	t2,32
 d60:	00720233          	add	tp,tp,t2
 d64:	fff00393          	li	t2,-1
 d68:	00001297          	auipc	t0,0x1
 d6c:	40428293          	addi	t0,t0,1028 # 216c <test_1_data+0x15c>
 d70:	0103f057          	vsetvli	zero,t2,e32,m1,tu,mu
 d74:	0202ee87          	vle32.v	v29,(t0)
 d78:	00400313          	li	t1,4
 d7c:	006282b3          	add	t0,t0,t1
 d80:	0103f057          	vsetvli	zero,t2,e32,m1,tu,mu
 d84:	0202e687          	vle32.v	v13,(t0)
 d88:	00400313          	li	t1,4
 d8c:	006282b3          	add	t0,t0,t1
 d90:	0103f057          	vsetvli	zero,t2,e32,m1,tu,mu
 d94:	0202e107          	vle32.v	v2,(t0)
 d98:	00400313          	li	t1,4
 d9c:	006282b3          	add	t0,t0,t1
 da0:	00000393          	li	t2,0
 da4:	0103f357          	vsetvli	t1,t2,e32,m1,tu,mu
 da8:	26dea157          	vaadd.vv	v2,v13,v29
 dac:	fff00393          	li	t2,-1
 db0:	0103f357          	vsetvli	t1,t2,e32,m1,tu,mu
 db4:	02026127          	vse32.v	v2,(tp)
 db8:	02000393          	li	t2,32
 dbc:	00720233          	add	tp,tp,t2
 dc0:	fff00393          	li	t2,-1
 dc4:	0103f357          	vsetvli	t1,t2,e32,m1,tu,mu
 dc8:	00002417          	auipc	s0,0x2
 dcc:	bf840413          	addi	s0,s0,-1032 # 29c0 <test_1_maskdata+0x3c0>
 dd0:	02046007          	vle32.v	v0,(s0)
 dd4:	fff00393          	li	t2,-1
 dd8:	00001297          	auipc	t0,0x1
 ddc:	3a028293          	addi	t0,t0,928 # 2178 <test_1_data+0x168>
 de0:	0103f057          	vsetvli	zero,t2,e32,m1,tu,mu
 de4:	0202ef07          	vle32.v	v30,(t0)
 de8:	00400313          	li	t1,4
 dec:	006282b3          	add	t0,t0,t1
 df0:	0103f057          	vsetvli	zero,t2,e32,m1,tu,mu
 df4:	0202e707          	vle32.v	v14,(t0)
 df8:	00400313          	li	t1,4
 dfc:	006282b3          	add	t0,t0,t1
 e00:	0103f057          	vsetvli	zero,t2,e32,m1,tu,mu
 e04:	0202e087          	vle32.v	v1,(t0)
 e08:	00400313          	li	t1,4
 e0c:	006282b3          	add	t0,t0,t1
 e10:	00800393          	li	t2,8
 e14:	0103f357          	vsetvli	t1,t2,e32,m1,tu,mu
 e18:	24ef20d7          	vaadd.vv	v1,v14,v30,v0.t
 e1c:	fff00393          	li	t2,-1
 e20:	0103f357          	vsetvli	t1,t2,e32,m1,tu,mu
 e24:	020260a7          	vse32.v	v1,(tp)
 e28:	02000393          	li	t2,32
 e2c:	00720233          	add	tp,tp,t2
 e30:	fff00393          	li	t2,-1
 e34:	00001297          	auipc	t0,0x1
 e38:	35028293          	addi	t0,t0,848 # 2184 <test_1_data+0x174>
 e3c:	0103f057          	vsetvli	zero,t2,e32,m1,tu,mu
 e40:	0202ef87          	vle32.v	v31,(t0)
 e44:	00400313          	li	t1,4
 e48:	006282b3          	add	t0,t0,t1
 e4c:	0103f057          	vsetvli	zero,t2,e32,m1,tu,mu
 e50:	0202e787          	vle32.v	v15,(t0)
 e54:	00400313          	li	t1,4
 e58:	006282b3          	add	t0,t0,t1
 e5c:	0103f057          	vsetvli	zero,t2,e32,m1,tu,mu
 e60:	0202e007          	vle32.v	v0,(t0)
 e64:	00400313          	li	t1,4
 e68:	006282b3          	add	t0,t0,t1
 e6c:	00600393          	li	t2,6
 e70:	0103f357          	vsetvli	t1,t2,e32,m1,tu,mu
 e74:	26ffa057          	vaadd.vv	v0,v15,v31
 e78:	fff00393          	li	t2,-1
 e7c:	0103f357          	vsetvli	t1,t2,e32,m1,tu,mu
 e80:	02026027          	vse32.v	v0,(tp)
 e84:	02000393          	li	t2,32
 e88:	00720233          	add	tp,tp,t2
 e8c:	00000013          	nop

00000e90 <rvtest_code_end>:
 e90:	0ff0000f          	fence
 e94:	00000073          	ecall
	...

Disassembly of section .tohost:

00003000 <tohost>:
	...

00003100 <fromhost>:
	...
