
/home/hassan/nucleusrv/imperas-riscv-tests/work/rv32i_m/I/AND-01.elf:     file format elf32-littleriscv


Disassembly of section .text.init:

00000000 <rvtest_entry_point>:
       0:	0440006f          	j	44 <reset_vector>

00000004 <trap_vector>:
       4:	342022f3          	csrr	t0,mcause
       8:	00800313          	li	t1,8
       c:	02628663          	beq	t0,t1,38 <write_tohost>
      10:	00900313          	li	t1,9
      14:	02628263          	beq	t0,t1,38 <write_tohost>
      18:	00b00313          	li	t1,11
      1c:	00628e63          	beq	t0,t1,38 <write_tohost>
      20:	00000293          	li	t0,0
      24:	00028463          	beqz	t0,2c <trap_vector+0x28>
      28:	00028067          	jr	t0
      2c:	342022f3          	csrr	t0,mcause
      30:	0002d263          	bgez	t0,34 <handle_exception>

00000034 <handle_exception>:
      34:	5391e193          	ori	gp,gp,1337

00000038 <write_tohost>:
      38:	00002297          	auipc	t0,0x2
      3c:	4c32a423          	sw	gp,1224(t0) # 2500 <tohost>
      40:	ff9ff06f          	j	38 <write_tohost>

00000044 <reset_vector>:
      44:	00002537          	lui	a0,0x2
      48:	80050513          	addi	a0,a0,-2048 # 1800 <rvtest_code_end+0x7d0>
      4c:	30052073          	csrs	mstatus,a0
      50:	00000297          	auipc	t0,0x0
      54:	fb428293          	addi	t0,t0,-76 # 4 <trap_vector>
      58:	30529073          	csrw	mtvec,t0
      5c:	00000297          	auipc	t0,0x0
      60:	02428293          	addi	t0,t0,36 # 80 <rvtest_init>
      64:	34129073          	csrw	mepc,t0
      68:	f1402573          	csrr	a0,mhartid
      6c:	30200073          	mret
      70:	00000013          	nop
      74:	00000013          	nop
      78:	00000013          	nop
      7c:	00000013          	nop

00000080 <rvtest_init>:
      80:	feedc0b7          	lui	ra,0xfeedc
      84:	ead08093          	addi	ra,ra,-339 # feedbead <fromhost+0xfeed98ad>
      88:	ff76e137          	lui	sp,0xff76e
      8c:	f5610113          	addi	sp,sp,-170 # ff76df56 <fromhost+0xff76b956>
      90:	7fbb71b7          	lui	gp,0x7fbb7
      94:	fab18193          	addi	gp,gp,-85 # 7fbb6fab <fromhost+0x7fbb49ab>
      98:	bfddb237          	lui	tp,0xbfddb
      9c:	7d520213          	addi	tp,tp,2005 # bfddb7d5 <fromhost+0xbfdd91d5>
      a0:	00000297          	auipc	t0,0x0
      a4:	0d828293          	addi	t0,t0,216 # 178 <rvtest_code_begin>
      a8:	00002317          	auipc	t1,0x2
      ac:	f5830313          	addi	t1,t1,-168 # 2000 <rvtest_data_begin>
      b0:	b7fbb3b7          	lui	t2,0xb7fbb
      b4:	6fa38393          	addi	t2,t2,1786 # b7fbb6fa <fromhost+0xb7fb90fa>
      b8:	5bfde437          	lui	s0,0x5bfde
      bc:	b7d40413          	addi	s0,s0,-1155 # 5bfddb7d <fromhost+0x5bfdb57d>
      c0:	adfef4b7          	lui	s1,0xadfef
      c4:	dbe48493          	addi	s1,s1,-578 # adfeedbe <fromhost+0xadfec7be>
      c8:	56ff7537          	lui	a0,0x56ff7
      cc:	6df50513          	addi	a0,a0,1759 # 56ff76df <fromhost+0x56ff50df>
      d0:	ab7fc5b7          	lui	a1,0xab7fc
      d4:	b6f58593          	addi	a1,a1,-1169 # ab7fbb6f <fromhost+0xab7f956f>
      d8:	d5bfe637          	lui	a2,0xd5bfe
      dc:	db760613          	addi	a2,a2,-585 # d5bfddb7 <fromhost+0xd5bfb7b7>
      e0:	eadff6b7          	lui	a3,0xeadff
      e4:	edb68693          	addi	a3,a3,-293 # eadfeedb <fromhost+0xeadfc8db>
      e8:	f56ff737          	lui	a4,0xf56ff
      ec:	76d70713          	addi	a4,a4,1901 # f56ff76d <fromhost+0xf56fd16d>
      f0:	fab807b7          	lui	a5,0xfab80
      f4:	bb678793          	addi	a5,a5,-1098 # fab7fbb6 <fromhost+0xfab7d5b6>
      f8:	7d5c0837          	lui	a6,0x7d5c0
      fc:	ddb80813          	addi	a6,a6,-549 # 7d5bfddb <fromhost+0x7d5bd7db>
     100:	beae08b7          	lui	a7,0xbeae0
     104:	eed88893          	addi	a7,a7,-275 # beadfeed <fromhost+0xbeadd8ed>
     108:	df570937          	lui	s2,0xdf570
     10c:	f7690913          	addi	s2,s2,-138 # df56ff76 <fromhost+0xdf56d976>
     110:	6fab89b7          	lui	s3,0x6fab8
     114:	fbb98993          	addi	s3,s3,-69 # 6fab7fbb <fromhost+0x6fab59bb>
     118:	b7d5ca37          	lui	s4,0xb7d5c
     11c:	fdda0a13          	addi	s4,s4,-35 # b7d5bfdd <fromhost+0xb7d599dd>
     120:	dbeaeab7          	lui	s5,0xdbeae
     124:	feea8a93          	addi	s5,s5,-18 # dbeadfee <fromhost+0xdbeab9ee>
     128:	6df57b37          	lui	s6,0x6df57
     12c:	ff7b0b13          	addi	s6,s6,-9 # 6df56ff7 <fromhost+0x6df549f7>
     130:	b6fabbb7          	lui	s7,0xb6fab
     134:	7fbb8b93          	addi	s7,s7,2043 # b6fab7fb <fromhost+0xb6fa91fb>
     138:	db7d6c37          	lui	s8,0xdb7d6
     13c:	bfdc0c13          	addi	s8,s8,-1027 # db7d5bfd <fromhost+0xdb7d35fd>
     140:	edbebcb7          	lui	s9,0xedbeb
     144:	dfec8c93          	addi	s9,s9,-514 # edbeadfe <fromhost+0xedbe87fe>
     148:	76df5d37          	lui	s10,0x76df5
     14c:	6ffd0d13          	addi	s10,s10,1791 # 76df56ff <fromhost+0x76df30ff>
     150:	bb6fbdb7          	lui	s11,0xbb6fb
     154:	b7fd8d93          	addi	s11,s11,-1153 # bb6fab7f <fromhost+0xbb6f857f>
     158:	ddb7de37          	lui	t3,0xddb7d
     15c:	5bfe0e13          	addi	t3,t3,1471 # ddb7d5bf <fromhost+0xddb7afbf>
     160:	eedbfeb7          	lui	t4,0xeedbf
     164:	adfe8e93          	addi	t4,t4,-1313 # eedbeadf <fromhost+0xeedbc4df>
     168:	f76dff37          	lui	t5,0xf76df
     16c:	56ff0f13          	addi	t5,t5,1391 # f76df56f <fromhost+0xf76dcf6f>
     170:	fbb70fb7          	lui	t6,0xfbb70
     174:	ab7f8f93          	addi	t6,t6,-1353 # fbb6fab7 <fromhost+0xfbb6d4b7>

00000178 <rvtest_code_begin>:
     178:	00002097          	auipc	ra,0x2
     17c:	e9808093          	addi	ra,ra,-360 # 2010 <begin_signature>

00000180 <inst_0>:
     180:	54f4be37          	lui	t3,0x54f4b
     184:	eebe0e13          	addi	t3,t3,-277 # 54f4aeeb <fromhost+0x54f488eb>
     188:	f4bcff37          	lui	t5,0xf4bcf
     18c:	4a7f0f13          	addi	t5,t5,1191 # f4bcf4a7 <fromhost+0xf4bccea7>
     190:	01ee79b3          	and	s3,t3,t5
     194:	0130a023          	sw	s3,0(ra)

00000198 <inst_1>:
     198:	e1b12537          	lui	a0,0xe1b12
     19c:	99b50513          	addi	a0,a0,-1637 # e1b1199b <fromhost+0xe1b0f39b>
     1a0:	e3978037          	lui	zero,0xe3978
     1a4:	ec100013          	li	zero,-319
     1a8:	00057a33          	and	s4,a0,zero
     1ac:	0140a223          	sw	s4,4(ra)

000001b0 <inst_2>:
     1b0:	b2656fb7          	lui	t6,0xb2656
     1b4:	6a0f8f93          	addi	t6,t6,1696 # b26566a0 <fromhost+0xb26540a0>
     1b8:	80bd4eb7          	lui	t4,0x80bd4
     1bc:	ffee8e93          	addi	t4,t4,-2 # 80bd3ffe <fromhost+0x80bd19fe>
     1c0:	01dff1b3          	and	gp,t6,t4
     1c4:	0030a423          	sw	gp,8(ra)
     1c8:	00002097          	auipc	ra,0x2
     1cc:	e5408093          	addi	ra,ra,-428 # 201c <signature_2_0>

000001d0 <inst_3>:
     1d0:	f2701037          	lui	zero,0xf2701
     1d4:	8e600013          	li	zero,-1818
     1d8:	c3e266b7          	lui	a3,0xc3e26
     1dc:	0bd68693          	addi	a3,a3,189 # c3e260bd <fromhost+0xc3e23abd>
     1e0:	00d072b3          	and	t0,zero,a3
     1e4:	0050a023          	sw	t0,0(ra)

000001e8 <inst_4>:
     1e8:	0c8485b7          	lui	a1,0xc848
     1ec:	4a358593          	addi	a1,a1,1187 # c8484a3 <fromhost+0xc845ea3>
     1f0:	2f7b2cb7          	lui	s9,0x2f7b2
     1f4:	2b7c8c93          	addi	s9,s9,695 # 2f7b22b7 <fromhost+0x2f7afcb7>
     1f8:	0195f233          	and	tp,a1,s9
     1fc:	0040a223          	sw	tp,4(ra)

00000200 <inst_5>:
     200:	a783d937          	lui	s2,0xa783d
     204:	03f90913          	addi	s2,s2,63 # a783d03f <fromhost+0xa783aa3f>
     208:	bf0433b7          	lui	t2,0xbf043
     20c:	c8c38393          	addi	t2,t2,-884 # bf042c8c <fromhost+0xbf04068c>
     210:	00797133          	and	sp,s2,t2
     214:	0020a423          	sw	sp,8(ra)
     218:	00002097          	auipc	ra,0x2
     21c:	e1008093          	addi	ra,ra,-496 # 2028 <signature_3_0>

00000220 <inst_6>:
     220:	fd7bafb7          	lui	t6,0xfd7ba
     224:	df8f8f93          	addi	t6,t6,-520 # fd7b9df8 <fromhost+0xfd7b77f8>
     228:	807fe8b7          	lui	a7,0x807fe
     22c:	20388893          	addi	a7,a7,515 # 807fe203 <fromhost+0x807fbc03>
     230:	011ff4b3          	and	s1,t6,a7
     234:	0090a023          	sw	s1,0(ra)

00000238 <inst_7>:
     238:	0afaafb7          	lui	t6,0xafaa
     23c:	29df8f93          	addi	t6,t6,669 # afaa29d <fromhost+0xafa7c9d>
     240:	a14d0ab7          	lui	s5,0xa14d0
     244:	866a8a93          	addi	s5,s5,-1946 # a14cf866 <fromhost+0xa14cd266>
     248:	015ffbb3          	and	s7,t6,s5
     24c:	0170a223          	sw	s7,4(ra)

00000250 <inst_8>:
     250:	413f3f37          	lui	t5,0x413f3
     254:	c62f0f13          	addi	t5,t5,-926 # 413f2c62 <fromhost+0x413f0662>
     258:	e2fe68b7          	lui	a7,0xe2fe6
     25c:	44388893          	addi	a7,a7,1091 # e2fe6443 <fromhost+0xe2fe3e43>
     260:	011f7033          	and	zero,t5,a7
     264:	0000a423          	sw	zero,8(ra)
     268:	00002097          	auipc	ra,0x2
     26c:	dcc08093          	addi	ra,ra,-564 # 2034 <signature_4_0>

00000270 <inst_9>:
     270:	2c371337          	lui	t1,0x2c371
     274:	a9a30313          	addi	t1,t1,-1382 # 2c370a9a <fromhost+0x2c36e49a>
     278:	701515b7          	lui	a1,0x70151
     27c:	2f558593          	addi	a1,a1,757 # 701512f5 <fromhost+0x7014ecf5>
     280:	00b37fb3          	and	t6,t1,a1
     284:	01f0a023          	sw	t6,0(ra)

00000288 <inst_10>:
     288:	2882a4b7          	lui	s1,0x2882a
     28c:	0b348493          	addi	s1,s1,179 # 2882a0b3 <fromhost+0x28827ab3>
     290:	2a81b137          	lui	sp,0x2a81b
     294:	79810113          	addi	sp,sp,1944 # 2a81b798 <fromhost+0x2a819198>
     298:	0024fb33          	and	s6,s1,sp
     29c:	0160a223          	sw	s6,4(ra)

000002a0 <inst_11>:
     2a0:	91dd66b7          	lui	a3,0x91dd6
     2a4:	ad668693          	addi	a3,a3,-1322 # 91dd5ad6 <fromhost+0x91dd34d6>
     2a8:	c68101b7          	lui	gp,0xc6810
     2ac:	1ee18193          	addi	gp,gp,494 # c68101ee <fromhost+0xc680dbee>
     2b0:	0036f3b3          	and	t2,a3,gp
     2b4:	0070a423          	sw	t2,8(ra)
     2b8:	00002097          	auipc	ra,0x2
     2bc:	d8808093          	addi	ra,ra,-632 # 2040 <signature_5_0>

000002c0 <inst_12>:
     2c0:	42f1dc37          	lui	s8,0x42f1d
     2c4:	629c0c13          	addi	s8,s8,1577 # 42f1d629 <fromhost+0x42f1b029>
     2c8:	589f3637          	lui	a2,0x589f3
     2cc:	ccd60613          	addi	a2,a2,-819 # 589f2ccd <fromhost+0x589f06cd>
     2d0:	00cc76b3          	and	a3,s8,a2
     2d4:	00d0a023          	sw	a3,0(ra)

000002d8 <inst_13>:
     2d8:	cddbe8b7          	lui	a7,0xcddbe
     2dc:	f6f88893          	addi	a7,a7,-145 # cddbdf6f <fromhost+0xcddbb96f>
     2e0:	014cf737          	lui	a4,0x14cf
     2e4:	50e70713          	addi	a4,a4,1294 # 14cf50e <fromhost+0x14ccf0e>
     2e8:	00e8f1b3          	and	gp,a7,a4
     2ec:	0030a223          	sw	gp,4(ra)

000002f0 <inst_14>:
     2f0:	4d237a37          	lui	s4,0x4d237
     2f4:	af8a0a13          	addi	s4,s4,-1288 # 4d236af8 <fromhost+0x4d2344f8>
     2f8:	c9e2d937          	lui	s2,0xc9e2d
     2fc:	e4f90913          	addi	s2,s2,-433 # c9e2ce4f <fromhost+0xc9e2a84f>
     300:	012a7fb3          	and	t6,s4,s2
     304:	01f0a423          	sw	t6,8(ra)
     308:	00002117          	auipc	sp,0x2
     30c:	d4410113          	addi	sp,sp,-700 # 204c <signature_6_0>

00000310 <inst_15>:
     310:	983baeb7          	lui	t4,0x983ba
     314:	f63e8e93          	addi	t4,t4,-157 # 983b9f63 <fromhost+0x983b7963>
     318:	242baf37          	lui	t5,0x242ba
     31c:	878f0f13          	addi	t5,t5,-1928 # 242b9878 <fromhost+0x242b7278>
     320:	01eef233          	and	tp,t4,t5
     324:	00412023          	sw	tp,0(sp)

00000328 <inst_16>:
     328:	1fbe40b7          	lui	ra,0x1fbe4
     32c:	ca608093          	addi	ra,ra,-858 # 1fbe3ca6 <fromhost+0x1fbe16a6>
     330:	28aaeb37          	lui	s6,0x28aae
     334:	b5bb0b13          	addi	s6,s6,-1189 # 28aadb5b <fromhost+0x28aab55b>
     338:	0160f8b3          	and	a7,ra,s6
     33c:	01112223          	sw	a7,4(sp)

00000340 <inst_17>:
     340:	353a89b7          	lui	s3,0x353a8
     344:	59398993          	addi	s3,s3,1427 # 353a8593 <fromhost+0x353a5f93>
     348:	df0fe7b7          	lui	a5,0xdf0fe
     34c:	cd278793          	addi	a5,a5,-814 # df0fdcd2 <fromhost+0xdf0fb6d2>
     350:	00f9f1b3          	and	gp,s3,a5
     354:	00312423          	sw	gp,8(sp)
     358:	00002097          	auipc	ra,0x2
     35c:	d0008093          	addi	ra,ra,-768 # 2058 <signature_7_0>

00000360 <inst_18>:
     360:	66269e37          	lui	t3,0x66269
     364:	a1ae0e13          	addi	t3,t3,-1510 # 66268a1a <fromhost+0x6626641a>
     368:	c357c337          	lui	t1,0xc357c
     36c:	92530313          	addi	t1,t1,-1755 # c357b925 <fromhost+0xc3579325>
     370:	006e76b3          	and	a3,t3,t1
     374:	00d0a023          	sw	a3,0(ra)

00000378 <inst_19>:
     378:	28ac5337          	lui	t1,0x28ac5
     37c:	4a330313          	addi	t1,t1,1187 # 28ac54a3 <fromhost+0x28ac2ea3>
     380:	ba4194b7          	lui	s1,0xba419
     384:	4f848493          	addi	s1,s1,1272 # ba4194f8 <fromhost+0xba416ef8>
     388:	00937733          	and	a4,t1,s1
     38c:	00e0a223          	sw	a4,4(ra)

00000390 <inst_20>:
     390:	dc371537          	lui	a0,0xdc371
     394:	3a250513          	addi	a0,a0,930 # dc3713a2 <fromhost+0xdc36eda2>
     398:	c2e01737          	lui	a4,0xc2e01
     39c:	8f570713          	addi	a4,a4,-1803 # c2e008f5 <fromhost+0xc2dfe2f5>
     3a0:	00e578b3          	and	a7,a0,a4
     3a4:	0110a423          	sw	a7,8(ra)
     3a8:	00002097          	auipc	ra,0x2
     3ac:	cbc08093          	addi	ra,ra,-836 # 2064 <signature_8_0>

000003b0 <inst_21>:
     3b0:	74674b37          	lui	s6,0x74674
     3b4:	399b0b13          	addi	s6,s6,921 # 74674399 <fromhost+0x74671d99>
     3b8:	2ed73037          	lui	zero,0x2ed73
     3bc:	9e000013          	li	zero,-1568
     3c0:	000b7333          	and	t1,s6,zero
     3c4:	0060a023          	sw	t1,0(ra)

000003c8 <inst_22>:
     3c8:	6bdda9b7          	lui	s3,0x6bdda
     3cc:	82198993          	addi	s3,s3,-2015 # 6bdd9821 <fromhost+0x6bdd7221>
     3d0:	5b577e37          	lui	t3,0x5b577
     3d4:	16ee0e13          	addi	t3,t3,366 # 5b57716e <fromhost+0x5b574b6e>
     3d8:	01c9f033          	and	zero,s3,t3
     3dc:	0000a223          	sw	zero,4(ra)

000003e0 <inst_23>:
     3e0:	82565fb7          	lui	t6,0x82565
     3e4:	8e4f8f93          	addi	t6,t6,-1820 # 825648e4 <fromhost+0x825622e4>
     3e8:	78637f37          	lui	t5,0x78637
     3ec:	af4f0f13          	addi	t5,t5,-1292 # 78636af4 <fromhost+0x786344f4>
     3f0:	01eff9b3          	and	s3,t6,t5
     3f4:	0130a423          	sw	s3,8(ra)
     3f8:	00002097          	auipc	ra,0x2
     3fc:	c7808093          	addi	ra,ra,-904 # 2070 <signature_9_0>

00000400 <inst_24>:
     400:	7bf4fab7          	lui	s5,0x7bf4f
     404:	f1ca8a93          	addi	s5,s5,-228 # 7bf4ef1c <fromhost+0x7bf4c91c>
     408:	f4cc3bb7          	lui	s7,0xf4cc3
     40c:	0bcb8b93          	addi	s7,s7,188 # f4cc30bc <fromhost+0xf4cc0abc>
     410:	017afdb3          	and	s11,s5,s7
     414:	01b0a023          	sw	s11,0(ra)

00000418 <inst_25>:
     418:	0f49ac37          	lui	s8,0xf49a
     41c:	4b2c0c13          	addi	s8,s8,1202 # f49a4b2 <fromhost+0xf497eb2>
     420:	35a0fe37          	lui	t3,0x35a0f
     424:	c80e0e13          	addi	t3,t3,-896 # 35a0ec80 <fromhost+0x35a0c680>
     428:	01cc7833          	and	a6,s8,t3
     42c:	0100a223          	sw	a6,4(ra)

00000430 <inst_26>:
     430:	fe9b9d37          	lui	s10,0xfe9b9
     434:	abfd0d13          	addi	s10,s10,-1345 # fe9b8abf <fromhost+0xfe9b64bf>
     438:	cb094837          	lui	a6,0xcb094
     43c:	7ed80813          	addi	a6,a6,2029 # cb0947ed <fromhost+0xcb0921ed>
     440:	010d73b3          	and	t2,s10,a6
     444:	0070a423          	sw	t2,8(ra)
     448:	00002097          	auipc	ra,0x2
     44c:	c3408093          	addi	ra,ra,-972 # 207c <signature_10_0>

00000450 <inst_27>:
     450:	347ec6b7          	lui	a3,0x347ec
     454:	c8968693          	addi	a3,a3,-887 # 347ebc89 <fromhost+0x347e9689>
     458:	8cc7e1b7          	lui	gp,0x8cc7e
     45c:	79018193          	addi	gp,gp,1936 # 8cc7e790 <fromhost+0x8cc7c190>
     460:	0036f2b3          	and	t0,a3,gp
     464:	0050a023          	sw	t0,0(ra)

00000468 <inst_28>:
     468:	f52a5437          	lui	s0,0xf52a5
     46c:	2bf40413          	addi	s0,s0,703 # f52a52bf <fromhost+0xf52a2cbf>
     470:	a5c8edb7          	lui	s11,0xa5c8e
     474:	860d8d93          	addi	s11,s11,-1952 # a5c8d860 <fromhost+0xa5c8b260>
     478:	01b472b3          	and	t0,s0,s11
     47c:	0050a223          	sw	t0,4(ra)

00000480 <inst_29>:
     480:	caa4c137          	lui	sp,0xcaa4c
     484:	80e10113          	addi	sp,sp,-2034 # caa4b80e <fromhost+0xcaa4920e>
     488:	f4a653b7          	lui	t2,0xf4a65
     48c:	99938393          	addi	t2,t2,-1639 # f4a64999 <fromhost+0xf4a62399>
     490:	00717033          	and	zero,sp,t2
     494:	0000a423          	sw	zero,8(ra)
     498:	00002097          	auipc	ra,0x2
     49c:	bf008093          	addi	ra,ra,-1040 # 2088 <signature_11_0>

000004a0 <inst_30>:
     4a0:	fff00193          	li	gp,-1
     4a4:	00000f13          	li	t5,0
     4a8:	01e1fe33          	and	t3,gp,t5
     4ac:	01c0a023          	sw	t3,0(ra)

000004b0 <inst_31>:
     4b0:	800008b7          	lui	a7,0x80000
     4b4:	fff00e13          	li	t3,-1
     4b8:	01c8fc33          	and	s8,a7,t3
     4bc:	0180a223          	sw	s8,4(ra)

000004c0 <inst_32>:
     4c0:	fff00a93          	li	s5,-1
     4c4:	fff00b13          	li	s6,-1
     4c8:	016af733          	and	a4,s5,s6
     4cc:	00e0a423          	sw	a4,8(ra)
     4d0:	00002097          	auipc	ra,0x2
     4d4:	bc408093          	addi	ra,ra,-1084 # 2094 <signature_12_0>

000004d8 <inst_33>:
     4d8:	00000613          	li	a2,0
     4dc:	800002b7          	lui	t0,0x80000
     4e0:	fff28293          	addi	t0,t0,-1 # 7fffffff <fromhost+0x7fffd9ff>
     4e4:	00567033          	and	zero,a2,t0
     4e8:	0000a023          	sw	zero,0(ra)

000004ec <inst_34>:
     4ec:	fff00013          	li	zero,-1
     4f0:	00000f13          	li	t5,0
     4f4:	01e07eb3          	and	t4,zero,t5
     4f8:	01d0a223          	sw	t4,4(ra)

000004fc <inst_35>:
     4fc:	800005b7          	lui	a1,0x80000
     500:	fff00893          	li	a7,-1
     504:	0115f033          	and	zero,a1,a7
     508:	0000a423          	sw	zero,8(ra)
     50c:	00002097          	auipc	ra,0x2
     510:	b9408093          	addi	ra,ra,-1132 # 20a0 <signature_13_0>

00000514 <inst_36>:
     514:	fff00813          	li	a6,-1
     518:	fff00c13          	li	s8,-1
     51c:	01887bb3          	and	s7,a6,s8
     520:	0170a023          	sw	s7,0(ra)

00000524 <inst_37>:
     524:	00000e93          	li	t4,0
     528:	80000137          	lui	sp,0x80000
     52c:	fff10113          	addi	sp,sp,-1 # 7fffffff <fromhost+0x7fffd9ff>
     530:	002ef633          	and	a2,t4,sp
     534:	00c0a223          	sw	a2,4(ra)

00000538 <inst_38>:
     538:	fff00613          	li	a2,-1
     53c:	00000f13          	li	t5,0
     540:	01e67fb3          	and	t6,a2,t5
     544:	01f0a423          	sw	t6,8(ra)
     548:	00002217          	auipc	tp,0x2
     54c:	b6420213          	addi	tp,tp,-1180 # 20ac <signature_14_0>

00000550 <inst_39>:
     550:	80000d37          	lui	s10,0x80000
     554:	fff00313          	li	t1,-1
     558:	006d73b3          	and	t2,s10,t1
     55c:	00722023          	sw	t2,0(tp) # 0 <rvtest_entry_point>

00000560 <inst_40>:
     560:	00100113          	li	sp,1
     564:	ffe00193          	li	gp,-2
     568:	003170b3          	and	ra,sp,gp
     56c:	00122223          	sw	ra,4(tp) # 4 <trap_vector>

00000570 <inst_41>:
     570:	00200113          	li	sp,2
     574:	800001b7          	lui	gp,0x80000
     578:	fff18193          	addi	gp,gp,-1 # 7fffffff <fromhost+0x7fffd9ff>
     57c:	003170b3          	and	ra,sp,gp
     580:	00122423          	sw	ra,8(tp) # 8 <trap_vector+0x4>
     584:	00002097          	auipc	ra,0x2
     588:	b3408093          	addi	ra,ra,-1228 # 20b8 <signature_15_0>

0000058c <inst_42>:
     58c:	00400193          	li	gp,4
     590:	c0000237          	lui	tp,0xc0000
     594:	fff20213          	addi	tp,tp,-1 # bfffffff <fromhost+0xbfffd9ff>
     598:	0041f133          	and	sp,gp,tp
     59c:	0020a023          	sw	sp,0(ra)

000005a0 <inst_43>:
     5a0:	00800213          	li	tp,8
     5a4:	e00002b7          	lui	t0,0xe0000
     5a8:	fff28293          	addi	t0,t0,-1 # dfffffff <fromhost+0xdfffd9ff>
     5ac:	005271b3          	and	gp,tp,t0
     5b0:	0030a223          	sw	gp,4(ra)

000005b4 <inst_44>:
     5b4:	01000293          	li	t0,16
     5b8:	f0000337          	lui	t1,0xf0000
     5bc:	fff30313          	addi	t1,t1,-1 # efffffff <fromhost+0xefffd9ff>
     5c0:	0062f233          	and	tp,t0,t1
     5c4:	0040a423          	sw	tp,8(ra)
     5c8:	00002097          	auipc	ra,0x2
     5cc:	afc08093          	addi	ra,ra,-1284 # 20c4 <signature_16_0>

000005d0 <inst_45>:
     5d0:	02000313          	li	t1,32
     5d4:	f80003b7          	lui	t2,0xf8000
     5d8:	fff38393          	addi	t2,t2,-1 # f7ffffff <fromhost+0xf7ffd9ff>
     5dc:	007372b3          	and	t0,t1,t2
     5e0:	0050a023          	sw	t0,0(ra)

000005e4 <inst_46>:
     5e4:	04000393          	li	t2,64
     5e8:	fc000437          	lui	s0,0xfc000
     5ec:	fff40413          	addi	s0,s0,-1 # fbffffff <fromhost+0xfbffd9ff>
     5f0:	0083f333          	and	t1,t2,s0
     5f4:	0060a223          	sw	t1,4(ra)

000005f8 <inst_47>:
     5f8:	08000413          	li	s0,128
     5fc:	fe0004b7          	lui	s1,0xfe000
     600:	fff48493          	addi	s1,s1,-1 # fdffffff <fromhost+0xfdffd9ff>
     604:	009473b3          	and	t2,s0,s1
     608:	0070a423          	sw	t2,8(ra)
     60c:	00002097          	auipc	ra,0x2
     610:	ac408093          	addi	ra,ra,-1340 # 20d0 <signature_17_0>

00000614 <inst_48>:
     614:	10000493          	li	s1,256
     618:	ff000537          	lui	a0,0xff000
     61c:	fff50513          	addi	a0,a0,-1 # feffffff <fromhost+0xfeffd9ff>
     620:	00a4f433          	and	s0,s1,a0
     624:	0080a023          	sw	s0,0(ra)

00000628 <inst_49>:
     628:	20000513          	li	a0,512
     62c:	ff8005b7          	lui	a1,0xff800
     630:	fff58593          	addi	a1,a1,-1 # ff7fffff <fromhost+0xff7fd9ff>
     634:	00b574b3          	and	s1,a0,a1
     638:	0090a223          	sw	s1,4(ra)

0000063c <inst_50>:
     63c:	40000593          	li	a1,1024
     640:	ffc00637          	lui	a2,0xffc00
     644:	fff60613          	addi	a2,a2,-1 # ffbfffff <fromhost+0xffbfd9ff>
     648:	00c5f533          	and	a0,a1,a2
     64c:	00a0a423          	sw	a0,8(ra)
     650:	00002097          	auipc	ra,0x2
     654:	a8c08093          	addi	ra,ra,-1396 # 20dc <signature_18_0>

00000658 <inst_51>:
     658:	00001637          	lui	a2,0x1
     65c:	80060613          	addi	a2,a2,-2048 # 800 <inst_71+0x8>
     660:	ffe006b7          	lui	a3,0xffe00
     664:	fff68693          	addi	a3,a3,-1 # ffdfffff <fromhost+0xffdfd9ff>
     668:	00d675b3          	and	a1,a2,a3
     66c:	00b0a023          	sw	a1,0(ra)

00000670 <inst_52>:
     670:	000016b7          	lui	a3,0x1
     674:	fff00737          	lui	a4,0xfff00
     678:	fff70713          	addi	a4,a4,-1 # ffefffff <fromhost+0xffefd9ff>
     67c:	00e6f633          	and	a2,a3,a4
     680:	00c0a223          	sw	a2,4(ra)

00000684 <inst_53>:
     684:	00002737          	lui	a4,0x2
     688:	fff807b7          	lui	a5,0xfff80
     68c:	fff78793          	addi	a5,a5,-1 # fff7ffff <fromhost+0xfff7d9ff>
     690:	00f776b3          	and	a3,a4,a5
     694:	00d0a423          	sw	a3,8(ra)
     698:	00002097          	auipc	ra,0x2
     69c:	a5008093          	addi	ra,ra,-1456 # 20e8 <signature_19_0>

000006a0 <inst_54>:
     6a0:	000047b7          	lui	a5,0x4
     6a4:	fffc0837          	lui	a6,0xfffc0
     6a8:	fff80813          	addi	a6,a6,-1 # fffbffff <fromhost+0xfffbd9ff>
     6ac:	0107f733          	and	a4,a5,a6
     6b0:	00e0a023          	sw	a4,0(ra)

000006b4 <inst_55>:
     6b4:	00008837          	lui	a6,0x8
     6b8:	fffe08b7          	lui	a7,0xfffe0
     6bc:	fff88893          	addi	a7,a7,-1 # fffdffff <fromhost+0xfffdd9ff>
     6c0:	011877b3          	and	a5,a6,a7
     6c4:	00f0a223          	sw	a5,4(ra)

000006c8 <inst_56>:
     6c8:	000108b7          	lui	a7,0x10
     6cc:	ffff0937          	lui	s2,0xffff0
     6d0:	fff90913          	addi	s2,s2,-1 # fffeffff <fromhost+0xfffed9ff>
     6d4:	0128f833          	and	a6,a7,s2
     6d8:	0100a423          	sw	a6,8(ra)
     6dc:	00002097          	auipc	ra,0x2
     6e0:	a1808093          	addi	ra,ra,-1512 # 20f4 <signature_20_0>

000006e4 <inst_57>:
     6e4:	00020937          	lui	s2,0x20
     6e8:	ffff89b7          	lui	s3,0xffff8
     6ec:	fff98993          	addi	s3,s3,-1 # ffff7fff <fromhost+0xffff59ff>
     6f0:	013978b3          	and	a7,s2,s3
     6f4:	0110a023          	sw	a7,0(ra)

000006f8 <inst_58>:
     6f8:	000409b7          	lui	s3,0x40
     6fc:	ffffca37          	lui	s4,0xffffc
     700:	fffa0a13          	addi	s4,s4,-1 # ffffbfff <fromhost+0xffff99ff>
     704:	0149f933          	and	s2,s3,s4
     708:	0120a223          	sw	s2,4(ra)

0000070c <inst_59>:
     70c:	00080a37          	lui	s4,0x80
     710:	ffffeab7          	lui	s5,0xffffe
     714:	fffa8a93          	addi	s5,s5,-1 # ffffdfff <fromhost+0xffffb9ff>
     718:	015a79b3          	and	s3,s4,s5
     71c:	0130a423          	sw	s3,8(ra)
     720:	00002097          	auipc	ra,0x2
     724:	9e008093          	addi	ra,ra,-1568 # 2100 <signature_21_0>

00000728 <inst_60>:
     728:	00100ab7          	lui	s5,0x100
     72c:	fffffb37          	lui	s6,0xfffff
     730:	fffb0b13          	addi	s6,s6,-1 # ffffefff <fromhost+0xffffc9ff>
     734:	016afa33          	and	s4,s5,s6
     738:	0140a023          	sw	s4,0(ra)

0000073c <inst_61>:
     73c:	00200b37          	lui	s6,0x200
     740:	fffffbb7          	lui	s7,0xfffff
     744:	7ffb8b93          	addi	s7,s7,2047 # fffff7ff <fromhost+0xffffd1ff>
     748:	017b7ab3          	and	s5,s6,s7
     74c:	0150a223          	sw	s5,4(ra)

00000750 <inst_62>:
     750:	00400bb7          	lui	s7,0x400
     754:	bff00c13          	li	s8,-1025
     758:	018bfb33          	and	s6,s7,s8
     75c:	0160a423          	sw	s6,8(ra)
     760:	00002097          	auipc	ra,0x2
     764:	9ac08093          	addi	ra,ra,-1620 # 210c <signature_22_0>

00000768 <inst_63>:
     768:	00800c37          	lui	s8,0x800
     76c:	dff00c93          	li	s9,-513
     770:	019c7bb3          	and	s7,s8,s9
     774:	0170a023          	sw	s7,0(ra)

00000778 <inst_64>:
     778:	01000cb7          	lui	s9,0x1000
     77c:	eff00d13          	li	s10,-257
     780:	01acfc33          	and	s8,s9,s10
     784:	0180a223          	sw	s8,4(ra)

00000788 <inst_65>:
     788:	02000d37          	lui	s10,0x2000
     78c:	f7f00d93          	li	s11,-129
     790:	01bd7cb3          	and	s9,s10,s11
     794:	0190a423          	sw	s9,8(ra)
     798:	00002097          	auipc	ra,0x2
     79c:	98008093          	addi	ra,ra,-1664 # 2118 <signature_23_0>

000007a0 <inst_66>:
     7a0:	04000db7          	lui	s11,0x4000
     7a4:	fbf00e13          	li	t3,-65
     7a8:	01cdfd33          	and	s10,s11,t3
     7ac:	01a0a023          	sw	s10,0(ra)

000007b0 <inst_67>:
     7b0:	08000e37          	lui	t3,0x8000
     7b4:	fdf00e93          	li	t4,-33
     7b8:	01de7db3          	and	s11,t3,t4
     7bc:	01b0a223          	sw	s11,4(ra)

000007c0 <inst_68>:
     7c0:	10000eb7          	lui	t4,0x10000
     7c4:	fef00f13          	li	t5,-17
     7c8:	01eefe33          	and	t3,t4,t5
     7cc:	01c0a423          	sw	t3,8(ra)
     7d0:	00002197          	auipc	gp,0x2
     7d4:	95418193          	addi	gp,gp,-1708 # 2124 <signature_24_0>

000007d8 <inst_69>:
     7d8:	20000f37          	lui	t5,0x20000
     7dc:	ff700f93          	li	t6,-9
     7e0:	01ff7eb3          	and	t4,t5,t6
     7e4:	01d1a023          	sw	t4,0(gp)

000007e8 <inst_70>:
     7e8:	40000fb7          	lui	t6,0x40000
     7ec:	ffb00093          	li	ra,-5
     7f0:	001fff33          	and	t5,t6,ra
     7f4:	01e1a223          	sw	t5,4(gp)

000007f8 <inst_71>:
     7f8:	800000b7          	lui	ra,0x80000
     7fc:	ffd00113          	li	sp,-3
     800:	0020ffb3          	and	t6,ra,sp
     804:	01f1a423          	sw	t6,8(gp)
     808:	00002297          	auipc	t0,0x2
     80c:	92828293          	addi	t0,t0,-1752 # 2130 <signature_25_0>

00000810 <inst_72>:
     810:	ffe00113          	li	sp,-2
     814:	ffe00193          	li	gp,-2
     818:	003170b3          	and	ra,sp,gp
     81c:	0012a023          	sw	ra,0(t0)

00000820 <inst_73>:
     820:	ffd00113          	li	sp,-3
     824:	800001b7          	lui	gp,0x80000
     828:	003170b3          	and	ra,sp,gp
     82c:	0012a223          	sw	ra,4(t0)

00000830 <inst_74>:
     830:	ffb00193          	li	gp,-5
     834:	40000237          	lui	tp,0x40000
     838:	0041f133          	and	sp,gp,tp
     83c:	0022a423          	sw	sp,8(t0)
     840:	00002097          	auipc	ra,0x2
     844:	8fc08093          	addi	ra,ra,-1796 # 213c <signature_26_0>

00000848 <inst_75>:
     848:	ff700213          	li	tp,-9
     84c:	200002b7          	lui	t0,0x20000
     850:	005271b3          	and	gp,tp,t0
     854:	0030a023          	sw	gp,0(ra)

00000858 <inst_76>:
     858:	fef00293          	li	t0,-17
     85c:	10000337          	lui	t1,0x10000
     860:	0062f233          	and	tp,t0,t1
     864:	0040a223          	sw	tp,4(ra)

00000868 <inst_77>:
     868:	fdf00313          	li	t1,-33
     86c:	080003b7          	lui	t2,0x8000
     870:	007372b3          	and	t0,t1,t2
     874:	0050a423          	sw	t0,8(ra)
     878:	00002097          	auipc	ra,0x2
     87c:	8d008093          	addi	ra,ra,-1840 # 2148 <signature_27_0>

00000880 <inst_78>:
     880:	fbf00393          	li	t2,-65
     884:	04000437          	lui	s0,0x4000
     888:	0083f333          	and	t1,t2,s0
     88c:	0060a023          	sw	t1,0(ra)

00000890 <inst_79>:
     890:	f7f00413          	li	s0,-129
     894:	020004b7          	lui	s1,0x2000
     898:	009473b3          	and	t2,s0,s1
     89c:	0070a223          	sw	t2,4(ra)

000008a0 <inst_80>:
     8a0:	eff00493          	li	s1,-257
     8a4:	01000537          	lui	a0,0x1000
     8a8:	00a4f433          	and	s0,s1,a0
     8ac:	0080a423          	sw	s0,8(ra)
     8b0:	00002097          	auipc	ra,0x2
     8b4:	8a408093          	addi	ra,ra,-1884 # 2154 <signature_28_0>

000008b8 <inst_81>:
     8b8:	dff00513          	li	a0,-513
     8bc:	008005b7          	lui	a1,0x800
     8c0:	00b574b3          	and	s1,a0,a1
     8c4:	0090a023          	sw	s1,0(ra)

000008c8 <inst_82>:
     8c8:	bff00593          	li	a1,-1025
     8cc:	00400637          	lui	a2,0x400
     8d0:	00c5f533          	and	a0,a1,a2
     8d4:	00a0a223          	sw	a0,4(ra)

000008d8 <inst_83>:
     8d8:	fffff637          	lui	a2,0xfffff
     8dc:	7ff60613          	addi	a2,a2,2047 # fffff7ff <fromhost+0xffffd1ff>
     8e0:	002006b7          	lui	a3,0x200
     8e4:	00d675b3          	and	a1,a2,a3
     8e8:	00b0a423          	sw	a1,8(ra)
     8ec:	00002097          	auipc	ra,0x2
     8f0:	87408093          	addi	ra,ra,-1932 # 2160 <signature_29_0>

000008f4 <inst_84>:
     8f4:	fffff6b7          	lui	a3,0xfffff
     8f8:	fff68693          	addi	a3,a3,-1 # ffffefff <fromhost+0xffffc9ff>
     8fc:	00100737          	lui	a4,0x100
     900:	00e6f633          	and	a2,a3,a4
     904:	00c0a023          	sw	a2,0(ra)

00000908 <inst_85>:
     908:	ffffe737          	lui	a4,0xffffe
     90c:	fff70713          	addi	a4,a4,-1 # ffffdfff <fromhost+0xffffb9ff>
     910:	000807b7          	lui	a5,0x80
     914:	00f776b3          	and	a3,a4,a5
     918:	00d0a223          	sw	a3,4(ra)

0000091c <inst_86>:
     91c:	ffffc7b7          	lui	a5,0xffffc
     920:	fff78793          	addi	a5,a5,-1 # ffffbfff <fromhost+0xffff99ff>
     924:	00040837          	lui	a6,0x40
     928:	0107f733          	and	a4,a5,a6
     92c:	00e0a423          	sw	a4,8(ra)
     930:	00002097          	auipc	ra,0x2
     934:	83c08093          	addi	ra,ra,-1988 # 216c <signature_30_0>

00000938 <inst_87>:
     938:	ffff8837          	lui	a6,0xffff8
     93c:	fff80813          	addi	a6,a6,-1 # ffff7fff <fromhost+0xffff59ff>
     940:	000208b7          	lui	a7,0x20
     944:	011877b3          	and	a5,a6,a7
     948:	00f0a023          	sw	a5,0(ra)

0000094c <inst_88>:
     94c:	ffff08b7          	lui	a7,0xffff0
     950:	fff88893          	addi	a7,a7,-1 # fffeffff <fromhost+0xfffed9ff>
     954:	00010937          	lui	s2,0x10
     958:	0128f833          	and	a6,a7,s2
     95c:	0100a223          	sw	a6,4(ra)

00000960 <inst_89>:
     960:	fffe0937          	lui	s2,0xfffe0
     964:	fff90913          	addi	s2,s2,-1 # fffdffff <fromhost+0xfffdd9ff>
     968:	000089b7          	lui	s3,0x8
     96c:	013978b3          	and	a7,s2,s3
     970:	0110a423          	sw	a7,8(ra)
     974:	00002097          	auipc	ra,0x2
     978:	80408093          	addi	ra,ra,-2044 # 2178 <signature_31_0>

0000097c <inst_90>:
     97c:	fffc09b7          	lui	s3,0xfffc0
     980:	fff98993          	addi	s3,s3,-1 # fffbffff <fromhost+0xfffbd9ff>
     984:	00004a37          	lui	s4,0x4
     988:	0149f933          	and	s2,s3,s4
     98c:	0120a023          	sw	s2,0(ra)

00000990 <inst_91>:
     990:	fff80a37          	lui	s4,0xfff80
     994:	fffa0a13          	addi	s4,s4,-1 # fff7ffff <fromhost+0xfff7d9ff>
     998:	00002ab7          	lui	s5,0x2
     99c:	015a79b3          	and	s3,s4,s5
     9a0:	0130a223          	sw	s3,4(ra)

000009a4 <inst_92>:
     9a4:	fff00ab7          	lui	s5,0xfff00
     9a8:	fffa8a93          	addi	s5,s5,-1 # ffefffff <fromhost+0xffefd9ff>
     9ac:	00001b37          	lui	s6,0x1
     9b0:	016afa33          	and	s4,s5,s6
     9b4:	0140a423          	sw	s4,8(ra)
     9b8:	00001097          	auipc	ra,0x1
     9bc:	7cc08093          	addi	ra,ra,1996 # 2184 <signature_32_0>

000009c0 <inst_93>:
     9c0:	ffe00b37          	lui	s6,0xffe00
     9c4:	fffb0b13          	addi	s6,s6,-1 # ffdfffff <fromhost+0xffdfd9ff>
     9c8:	00001bb7          	lui	s7,0x1
     9cc:	800b8b93          	addi	s7,s7,-2048 # 800 <inst_71+0x8>
     9d0:	017b7ab3          	and	s5,s6,s7
     9d4:	0150a023          	sw	s5,0(ra)

000009d8 <inst_94>:
     9d8:	ffc00bb7          	lui	s7,0xffc00
     9dc:	fffb8b93          	addi	s7,s7,-1 # ffbfffff <fromhost+0xffbfd9ff>
     9e0:	40000c13          	li	s8,1024
     9e4:	018bfb33          	and	s6,s7,s8
     9e8:	0160a223          	sw	s6,4(ra)

000009ec <inst_95>:
     9ec:	ff800c37          	lui	s8,0xff800
     9f0:	fffc0c13          	addi	s8,s8,-1 # ff7fffff <fromhost+0xff7fd9ff>
     9f4:	20000c93          	li	s9,512
     9f8:	019c7bb3          	and	s7,s8,s9
     9fc:	0170a423          	sw	s7,8(ra)
     a00:	00001097          	auipc	ra,0x1
     a04:	79008093          	addi	ra,ra,1936 # 2190 <signature_33_0>

00000a08 <inst_96>:
     a08:	ff000cb7          	lui	s9,0xff000
     a0c:	fffc8c93          	addi	s9,s9,-1 # feffffff <fromhost+0xfeffd9ff>
     a10:	10000d13          	li	s10,256
     a14:	01acfc33          	and	s8,s9,s10
     a18:	0180a023          	sw	s8,0(ra)

00000a1c <inst_97>:
     a1c:	fe000d37          	lui	s10,0xfe000
     a20:	fffd0d13          	addi	s10,s10,-1 # fdffffff <fromhost+0xfdffd9ff>
     a24:	08000d93          	li	s11,128
     a28:	01bd7cb3          	and	s9,s10,s11
     a2c:	0190a223          	sw	s9,4(ra)

00000a30 <inst_98>:
     a30:	fc000db7          	lui	s11,0xfc000
     a34:	fffd8d93          	addi	s11,s11,-1 # fbffffff <fromhost+0xfbffd9ff>
     a38:	04000e13          	li	t3,64
     a3c:	01cdfd33          	and	s10,s11,t3
     a40:	01a0a423          	sw	s10,8(ra)
     a44:	00001097          	auipc	ra,0x1
     a48:	75808093          	addi	ra,ra,1880 # 219c <signature_34_0>

00000a4c <inst_99>:
     a4c:	f8000e37          	lui	t3,0xf8000
     a50:	fffe0e13          	addi	t3,t3,-1 # f7ffffff <fromhost+0xf7ffd9ff>
     a54:	02000e93          	li	t4,32
     a58:	01de7db3          	and	s11,t3,t4
     a5c:	01b0a023          	sw	s11,0(ra)

00000a60 <inst_100>:
     a60:	f0000eb7          	lui	t4,0xf0000
     a64:	fffe8e93          	addi	t4,t4,-1 # efffffff <fromhost+0xefffd9ff>
     a68:	01000f13          	li	t5,16
     a6c:	01eefe33          	and	t3,t4,t5
     a70:	01c0a223          	sw	t3,4(ra)

00000a74 <inst_101>:
     a74:	e0000f37          	lui	t5,0xe0000
     a78:	ffff0f13          	addi	t5,t5,-1 # dfffffff <fromhost+0xdfffd9ff>
     a7c:	00800f93          	li	t6,8
     a80:	01ff7eb3          	and	t4,t5,t6
     a84:	01d0a423          	sw	t4,8(ra)
     a88:	00001217          	auipc	tp,0x1
     a8c:	72020213          	addi	tp,tp,1824 # 21a8 <signature_35_0>

00000a90 <inst_102>:
     a90:	c0000fb7          	lui	t6,0xc0000
     a94:	ffff8f93          	addi	t6,t6,-1 # bfffffff <fromhost+0xbfffd9ff>
     a98:	00400093          	li	ra,4
     a9c:	001fff33          	and	t5,t6,ra
     aa0:	01e22023          	sw	t5,0(tp) # 0 <rvtest_entry_point>

00000aa4 <inst_103>:
     aa4:	800000b7          	lui	ra,0x80000
     aa8:	fff08093          	addi	ra,ra,-1 # 7fffffff <fromhost+0x7fffd9ff>
     aac:	00200113          	li	sp,2
     ab0:	0020ffb3          	and	t6,ra,sp
     ab4:	01f22223          	sw	t6,4(tp) # 4 <trap_vector>

00000ab8 <inst_104>:
     ab8:	00100113          	li	sp,1
     abc:	00000193          	li	gp,0
     ac0:	003170b3          	and	ra,sp,gp
     ac4:	00122423          	sw	ra,8(tp) # 8 <trap_vector+0x4>
     ac8:	00001317          	auipc	t1,0x1
     acc:	6ec30313          	addi	t1,t1,1772 # 21b4 <signature_36_0>

00000ad0 <inst_105>:
     ad0:	00200113          	li	sp,2
     ad4:	00000193          	li	gp,0
     ad8:	003170b3          	and	ra,sp,gp
     adc:	00132023          	sw	ra,0(t1)

00000ae0 <inst_106>:
     ae0:	00400193          	li	gp,4
     ae4:	00000213          	li	tp,0
     ae8:	0041f133          	and	sp,gp,tp
     aec:	00232223          	sw	sp,4(t1)

00000af0 <inst_107>:
     af0:	00800213          	li	tp,8
     af4:	00000293          	li	t0,0
     af8:	005271b3          	and	gp,tp,t0
     afc:	00332423          	sw	gp,8(t1)
     b00:	00001097          	auipc	ra,0x1
     b04:	6c008093          	addi	ra,ra,1728 # 21c0 <signature_37_0>

00000b08 <inst_108>:
     b08:	01000293          	li	t0,16
     b0c:	00000313          	li	t1,0
     b10:	0062f233          	and	tp,t0,t1
     b14:	0040a023          	sw	tp,0(ra)

00000b18 <inst_109>:
     b18:	02000313          	li	t1,32
     b1c:	00000393          	li	t2,0
     b20:	007372b3          	and	t0,t1,t2
     b24:	0050a223          	sw	t0,4(ra)

00000b28 <inst_110>:
     b28:	04000393          	li	t2,64
     b2c:	00000413          	li	s0,0
     b30:	0083f333          	and	t1,t2,s0
     b34:	0060a423          	sw	t1,8(ra)
     b38:	00001097          	auipc	ra,0x1
     b3c:	69408093          	addi	ra,ra,1684 # 21cc <signature_38_0>

00000b40 <inst_111>:
     b40:	08000413          	li	s0,128
     b44:	00000493          	li	s1,0
     b48:	009473b3          	and	t2,s0,s1
     b4c:	0070a023          	sw	t2,0(ra)

00000b50 <inst_112>:
     b50:	10000493          	li	s1,256
     b54:	00000513          	li	a0,0
     b58:	00a4f433          	and	s0,s1,a0
     b5c:	0080a223          	sw	s0,4(ra)

00000b60 <inst_113>:
     b60:	20000513          	li	a0,512
     b64:	00000593          	li	a1,0
     b68:	00b574b3          	and	s1,a0,a1
     b6c:	0090a423          	sw	s1,8(ra)
     b70:	00001097          	auipc	ra,0x1
     b74:	66808093          	addi	ra,ra,1640 # 21d8 <signature_39_0>

00000b78 <inst_114>:
     b78:	40000593          	li	a1,1024
     b7c:	00000613          	li	a2,0
     b80:	00c5f533          	and	a0,a1,a2
     b84:	00a0a023          	sw	a0,0(ra)

00000b88 <inst_115>:
     b88:	00001637          	lui	a2,0x1
     b8c:	80060613          	addi	a2,a2,-2048 # 800 <inst_71+0x8>
     b90:	00000693          	li	a3,0
     b94:	00d675b3          	and	a1,a2,a3
     b98:	00b0a223          	sw	a1,4(ra)

00000b9c <inst_116>:
     b9c:	000016b7          	lui	a3,0x1
     ba0:	00000713          	li	a4,0
     ba4:	00e6f633          	and	a2,a3,a4
     ba8:	00c0a423          	sw	a2,8(ra)
     bac:	00001097          	auipc	ra,0x1
     bb0:	63808093          	addi	ra,ra,1592 # 21e4 <signature_40_0>

00000bb4 <inst_117>:
     bb4:	00002737          	lui	a4,0x2
     bb8:	00000793          	li	a5,0
     bbc:	00f776b3          	and	a3,a4,a5
     bc0:	00d0a023          	sw	a3,0(ra)

00000bc4 <inst_118>:
     bc4:	000047b7          	lui	a5,0x4
     bc8:	00000813          	li	a6,0
     bcc:	0107f733          	and	a4,a5,a6
     bd0:	00e0a223          	sw	a4,4(ra)

00000bd4 <inst_119>:
     bd4:	00008837          	lui	a6,0x8
     bd8:	00000893          	li	a7,0
     bdc:	011877b3          	and	a5,a6,a7
     be0:	00f0a423          	sw	a5,8(ra)
     be4:	00001097          	auipc	ra,0x1
     be8:	60c08093          	addi	ra,ra,1548 # 21f0 <signature_41_0>

00000bec <inst_120>:
     bec:	000108b7          	lui	a7,0x10
     bf0:	00000913          	li	s2,0
     bf4:	0128f833          	and	a6,a7,s2
     bf8:	0100a023          	sw	a6,0(ra)

00000bfc <inst_121>:
     bfc:	00020937          	lui	s2,0x20
     c00:	00000993          	li	s3,0
     c04:	013978b3          	and	a7,s2,s3
     c08:	0110a223          	sw	a7,4(ra)

00000c0c <inst_122>:
     c0c:	000409b7          	lui	s3,0x40
     c10:	00000a13          	li	s4,0
     c14:	0149f933          	and	s2,s3,s4
     c18:	0120a423          	sw	s2,8(ra)
     c1c:	00001097          	auipc	ra,0x1
     c20:	5e008093          	addi	ra,ra,1504 # 21fc <signature_42_0>

00000c24 <inst_123>:
     c24:	00080a37          	lui	s4,0x80
     c28:	00000a93          	li	s5,0
     c2c:	015a79b3          	and	s3,s4,s5
     c30:	0130a023          	sw	s3,0(ra)

00000c34 <inst_124>:
     c34:	00100ab7          	lui	s5,0x100
     c38:	00000b13          	li	s6,0
     c3c:	016afa33          	and	s4,s5,s6
     c40:	0140a223          	sw	s4,4(ra)

00000c44 <inst_125>:
     c44:	00200b37          	lui	s6,0x200
     c48:	00000b93          	li	s7,0
     c4c:	017b7ab3          	and	s5,s6,s7
     c50:	0150a423          	sw	s5,8(ra)
     c54:	00001097          	auipc	ra,0x1
     c58:	5b408093          	addi	ra,ra,1460 # 2208 <signature_43_0>

00000c5c <inst_126>:
     c5c:	00400bb7          	lui	s7,0x400
     c60:	00000c13          	li	s8,0
     c64:	018bfb33          	and	s6,s7,s8
     c68:	0160a023          	sw	s6,0(ra)

00000c6c <inst_127>:
     c6c:	00800c37          	lui	s8,0x800
     c70:	00000c93          	li	s9,0
     c74:	019c7bb3          	and	s7,s8,s9
     c78:	0170a223          	sw	s7,4(ra)

00000c7c <inst_128>:
     c7c:	01000cb7          	lui	s9,0x1000
     c80:	00000d13          	li	s10,0
     c84:	01acfc33          	and	s8,s9,s10
     c88:	0180a423          	sw	s8,8(ra)
     c8c:	00001097          	auipc	ra,0x1
     c90:	58808093          	addi	ra,ra,1416 # 2214 <signature_44_0>

00000c94 <inst_129>:
     c94:	02000d37          	lui	s10,0x2000
     c98:	00000d93          	li	s11,0
     c9c:	01bd7cb3          	and	s9,s10,s11
     ca0:	0190a023          	sw	s9,0(ra)

00000ca4 <inst_130>:
     ca4:	04000db7          	lui	s11,0x4000
     ca8:	00000e13          	li	t3,0
     cac:	01cdfd33          	and	s10,s11,t3
     cb0:	01a0a223          	sw	s10,4(ra)

00000cb4 <inst_131>:
     cb4:	08000e37          	lui	t3,0x8000
     cb8:	00000e93          	li	t4,0
     cbc:	01de7db3          	and	s11,t3,t4
     cc0:	01b0a423          	sw	s11,8(ra)
     cc4:	00001117          	auipc	sp,0x1
     cc8:	55c10113          	addi	sp,sp,1372 # 2220 <signature_45_0>

00000ccc <inst_132>:
     ccc:	10000eb7          	lui	t4,0x10000
     cd0:	00000f13          	li	t5,0
     cd4:	01eefe33          	and	t3,t4,t5
     cd8:	01c12023          	sw	t3,0(sp)

00000cdc <inst_133>:
     cdc:	20000f37          	lui	t5,0x20000
     ce0:	00000f93          	li	t6,0
     ce4:	01ff7eb3          	and	t4,t5,t6
     ce8:	01d12223          	sw	t4,4(sp)

00000cec <inst_134>:
     cec:	40000fb7          	lui	t6,0x40000
     cf0:	00000093          	li	ra,0
     cf4:	001fff33          	and	t5,t6,ra
     cf8:	01e12423          	sw	t5,8(sp)
     cfc:	00001217          	auipc	tp,0x1
     d00:	53020213          	addi	tp,tp,1328 # 222c <signature_46_0>

00000d04 <inst_135>:
     d04:	800000b7          	lui	ra,0x80000
     d08:	00000113          	li	sp,0
     d0c:	0020ffb3          	and	t6,ra,sp
     d10:	01f22023          	sw	t6,0(tp) # 0 <rvtest_entry_point>

00000d14 <inst_136>:
     d14:	ffe00113          	li	sp,-2
     d18:	00000193          	li	gp,0
     d1c:	003170b3          	and	ra,sp,gp
     d20:	00122223          	sw	ra,4(tp) # 4 <trap_vector>

00000d24 <inst_137>:
     d24:	ffd00113          	li	sp,-3
     d28:	00000193          	li	gp,0
     d2c:	003170b3          	and	ra,sp,gp
     d30:	00122423          	sw	ra,8(tp) # 8 <trap_vector+0x4>
     d34:	00001097          	auipc	ra,0x1
     d38:	50408093          	addi	ra,ra,1284 # 2238 <signature_47_0>

00000d3c <inst_138>:
     d3c:	ffb00193          	li	gp,-5
     d40:	00000213          	li	tp,0
     d44:	0041f133          	and	sp,gp,tp
     d48:	0020a023          	sw	sp,0(ra)

00000d4c <inst_139>:
     d4c:	ff700213          	li	tp,-9
     d50:	00000293          	li	t0,0
     d54:	005271b3          	and	gp,tp,t0
     d58:	0030a223          	sw	gp,4(ra)

00000d5c <inst_140>:
     d5c:	fef00293          	li	t0,-17
     d60:	00000313          	li	t1,0
     d64:	0062f233          	and	tp,t0,t1
     d68:	0040a423          	sw	tp,8(ra)
     d6c:	00001097          	auipc	ra,0x1
     d70:	4d808093          	addi	ra,ra,1240 # 2244 <signature_48_0>

00000d74 <inst_141>:
     d74:	fdf00313          	li	t1,-33
     d78:	00000393          	li	t2,0
     d7c:	007372b3          	and	t0,t1,t2
     d80:	0050a023          	sw	t0,0(ra)

00000d84 <inst_142>:
     d84:	fbf00393          	li	t2,-65
     d88:	00000413          	li	s0,0
     d8c:	0083f333          	and	t1,t2,s0
     d90:	0060a223          	sw	t1,4(ra)

00000d94 <inst_143>:
     d94:	f7f00413          	li	s0,-129
     d98:	00000493          	li	s1,0
     d9c:	009473b3          	and	t2,s0,s1
     da0:	0070a423          	sw	t2,8(ra)
     da4:	00001097          	auipc	ra,0x1
     da8:	4ac08093          	addi	ra,ra,1196 # 2250 <signature_49_0>

00000dac <inst_144>:
     dac:	eff00493          	li	s1,-257
     db0:	00000513          	li	a0,0
     db4:	00a4f433          	and	s0,s1,a0
     db8:	0080a023          	sw	s0,0(ra)

00000dbc <inst_145>:
     dbc:	dff00513          	li	a0,-513
     dc0:	00000593          	li	a1,0
     dc4:	00b574b3          	and	s1,a0,a1
     dc8:	0090a223          	sw	s1,4(ra)

00000dcc <inst_146>:
     dcc:	bff00593          	li	a1,-1025
     dd0:	00000613          	li	a2,0
     dd4:	00c5f533          	and	a0,a1,a2
     dd8:	00a0a423          	sw	a0,8(ra)
     ddc:	00001097          	auipc	ra,0x1
     de0:	48008093          	addi	ra,ra,1152 # 225c <signature_50_0>

00000de4 <inst_147>:
     de4:	fffff637          	lui	a2,0xfffff
     de8:	7ff60613          	addi	a2,a2,2047 # fffff7ff <fromhost+0xffffd1ff>
     dec:	00000693          	li	a3,0
     df0:	00d675b3          	and	a1,a2,a3
     df4:	00b0a023          	sw	a1,0(ra)

00000df8 <inst_148>:
     df8:	fffff6b7          	lui	a3,0xfffff
     dfc:	fff68693          	addi	a3,a3,-1 # ffffefff <fromhost+0xffffc9ff>
     e00:	00000713          	li	a4,0
     e04:	00e6f633          	and	a2,a3,a4
     e08:	00c0a223          	sw	a2,4(ra)

00000e0c <inst_149>:
     e0c:	ffffe737          	lui	a4,0xffffe
     e10:	fff70713          	addi	a4,a4,-1 # ffffdfff <fromhost+0xffffb9ff>
     e14:	00000793          	li	a5,0
     e18:	00f776b3          	and	a3,a4,a5
     e1c:	00d0a423          	sw	a3,8(ra)
     e20:	00001097          	auipc	ra,0x1
     e24:	44808093          	addi	ra,ra,1096 # 2268 <signature_51_0>

00000e28 <inst_150>:
     e28:	ffffc7b7          	lui	a5,0xffffc
     e2c:	fff78793          	addi	a5,a5,-1 # ffffbfff <fromhost+0xffff99ff>
     e30:	00000813          	li	a6,0
     e34:	0107f733          	and	a4,a5,a6
     e38:	00e0a023          	sw	a4,0(ra)

00000e3c <inst_151>:
     e3c:	ffff8837          	lui	a6,0xffff8
     e40:	fff80813          	addi	a6,a6,-1 # ffff7fff <fromhost+0xffff59ff>
     e44:	00000893          	li	a7,0
     e48:	011877b3          	and	a5,a6,a7
     e4c:	00f0a223          	sw	a5,4(ra)

00000e50 <inst_152>:
     e50:	ffff08b7          	lui	a7,0xffff0
     e54:	fff88893          	addi	a7,a7,-1 # fffeffff <fromhost+0xfffed9ff>
     e58:	00000913          	li	s2,0
     e5c:	0128f833          	and	a6,a7,s2
     e60:	0100a423          	sw	a6,8(ra)
     e64:	00001097          	auipc	ra,0x1
     e68:	41008093          	addi	ra,ra,1040 # 2274 <signature_52_0>

00000e6c <inst_153>:
     e6c:	fffe0937          	lui	s2,0xfffe0
     e70:	fff90913          	addi	s2,s2,-1 # fffdffff <fromhost+0xfffdd9ff>
     e74:	00000993          	li	s3,0
     e78:	013978b3          	and	a7,s2,s3
     e7c:	0110a023          	sw	a7,0(ra)

00000e80 <inst_154>:
     e80:	fffc09b7          	lui	s3,0xfffc0
     e84:	fff98993          	addi	s3,s3,-1 # fffbffff <fromhost+0xfffbd9ff>
     e88:	00000a13          	li	s4,0
     e8c:	0149f933          	and	s2,s3,s4
     e90:	0120a223          	sw	s2,4(ra)

00000e94 <inst_155>:
     e94:	fff80a37          	lui	s4,0xfff80
     e98:	fffa0a13          	addi	s4,s4,-1 # fff7ffff <fromhost+0xfff7d9ff>
     e9c:	00000a93          	li	s5,0
     ea0:	015a79b3          	and	s3,s4,s5
     ea4:	0130a423          	sw	s3,8(ra)
     ea8:	00001097          	auipc	ra,0x1
     eac:	3d808093          	addi	ra,ra,984 # 2280 <signature_53_0>

00000eb0 <inst_156>:
     eb0:	fff00ab7          	lui	s5,0xfff00
     eb4:	fffa8a93          	addi	s5,s5,-1 # ffefffff <fromhost+0xffefd9ff>
     eb8:	00000b13          	li	s6,0
     ebc:	016afa33          	and	s4,s5,s6
     ec0:	0140a023          	sw	s4,0(ra)

00000ec4 <inst_157>:
     ec4:	ffe00b37          	lui	s6,0xffe00
     ec8:	fffb0b13          	addi	s6,s6,-1 # ffdfffff <fromhost+0xffdfd9ff>
     ecc:	00000b93          	li	s7,0
     ed0:	017b7ab3          	and	s5,s6,s7
     ed4:	0150a223          	sw	s5,4(ra)

00000ed8 <inst_158>:
     ed8:	ffc00bb7          	lui	s7,0xffc00
     edc:	fffb8b93          	addi	s7,s7,-1 # ffbfffff <fromhost+0xffbfd9ff>
     ee0:	00000c13          	li	s8,0
     ee4:	018bfb33          	and	s6,s7,s8
     ee8:	0160a423          	sw	s6,8(ra)
     eec:	00001097          	auipc	ra,0x1
     ef0:	3a008093          	addi	ra,ra,928 # 228c <signature_54_0>

00000ef4 <inst_159>:
     ef4:	ff800c37          	lui	s8,0xff800
     ef8:	fffc0c13          	addi	s8,s8,-1 # ff7fffff <fromhost+0xff7fd9ff>
     efc:	00000c93          	li	s9,0
     f00:	019c7bb3          	and	s7,s8,s9
     f04:	0170a023          	sw	s7,0(ra)

00000f08 <inst_160>:
     f08:	ff000cb7          	lui	s9,0xff000
     f0c:	fffc8c93          	addi	s9,s9,-1 # feffffff <fromhost+0xfeffd9ff>
     f10:	00000d13          	li	s10,0
     f14:	01acfc33          	and	s8,s9,s10
     f18:	0180a223          	sw	s8,4(ra)

00000f1c <inst_161>:
     f1c:	fe000d37          	lui	s10,0xfe000
     f20:	fffd0d13          	addi	s10,s10,-1 # fdffffff <fromhost+0xfdffd9ff>
     f24:	00000d93          	li	s11,0
     f28:	01bd7cb3          	and	s9,s10,s11
     f2c:	0190a423          	sw	s9,8(ra)
     f30:	00001097          	auipc	ra,0x1
     f34:	36808093          	addi	ra,ra,872 # 2298 <signature_55_0>

00000f38 <inst_162>:
     f38:	fc000db7          	lui	s11,0xfc000
     f3c:	fffd8d93          	addi	s11,s11,-1 # fbffffff <fromhost+0xfbffd9ff>
     f40:	00000e13          	li	t3,0
     f44:	01cdfd33          	and	s10,s11,t3
     f48:	01a0a023          	sw	s10,0(ra)

00000f4c <inst_163>:
     f4c:	f8000e37          	lui	t3,0xf8000
     f50:	fffe0e13          	addi	t3,t3,-1 # f7ffffff <fromhost+0xf7ffd9ff>
     f54:	00000e93          	li	t4,0
     f58:	01de7db3          	and	s11,t3,t4
     f5c:	01b0a223          	sw	s11,4(ra)

00000f60 <inst_164>:
     f60:	f0000eb7          	lui	t4,0xf0000
     f64:	fffe8e93          	addi	t4,t4,-1 # efffffff <fromhost+0xefffd9ff>
     f68:	00000f13          	li	t5,0
     f6c:	01eefe33          	and	t3,t4,t5
     f70:	01c0a423          	sw	t3,8(ra)
     f74:	00001197          	auipc	gp,0x1
     f78:	33018193          	addi	gp,gp,816 # 22a4 <signature_56_0>

00000f7c <inst_165>:
     f7c:	e0000f37          	lui	t5,0xe0000
     f80:	ffff0f13          	addi	t5,t5,-1 # dfffffff <fromhost+0xdfffd9ff>
     f84:	00000f93          	li	t6,0
     f88:	01ff7eb3          	and	t4,t5,t6
     f8c:	01d1a023          	sw	t4,0(gp)

00000f90 <inst_166>:
     f90:	c0000fb7          	lui	t6,0xc0000
     f94:	ffff8f93          	addi	t6,t6,-1 # bfffffff <fromhost+0xbfffd9ff>
     f98:	00000093          	li	ra,0
     f9c:	001fff33          	and	t5,t6,ra
     fa0:	01e1a223          	sw	t5,4(gp)

00000fa4 <inst_167>:
     fa4:	800000b7          	lui	ra,0x80000
     fa8:	fff08093          	addi	ra,ra,-1 # 7fffffff <fromhost+0x7fffd9ff>
     fac:	00000113          	li	sp,0
     fb0:	0020ffb3          	and	t6,ra,sp
     fb4:	01f1a423          	sw	t6,8(gp)
     fb8:	00001097          	auipc	ra,0x1
     fbc:	2f808093          	addi	ra,ra,760 # 22b0 <signature_57_0>

00000fc0 <inst_168>:
     fc0:	316bd4b7          	lui	s1,0x316bd
     fc4:	ec848493          	addi	s1,s1,-312 # 316bcec8 <fromhost+0x316ba8c8>
     fc8:	382ae4b7          	lui	s1,0x382ae
     fcc:	81948493          	addi	s1,s1,-2023 # 382ad819 <fromhost+0x382ab219>
     fd0:	0094f5b3          	and	a1,s1,s1
     fd4:	00b0a023          	sw	a1,0(ra)

00000fd8 <inst_169>:
     fd8:	1ce2c3b7          	lui	t2,0x1ce2c
     fdc:	96b38393          	addi	t2,t2,-1685 # 1ce2b96b <fromhost+0x1ce2936b>
     fe0:	eec746b7          	lui	a3,0xeec74
     fe4:	0dd68693          	addi	a3,a3,221 # eec740dd <fromhost+0xeec71add>
     fe8:	00d3f033          	and	zero,t2,a3
     fec:	0000a223          	sw	zero,4(ra)

00000ff0 <inst_170>:
     ff0:	cd126037          	lui	zero,0xcd126
     ff4:	86200013          	li	zero,-1950
     ff8:	c77cb6b7          	lui	a3,0xc77cb
     ffc:	bda68693          	addi	a3,a3,-1062 # c77cabda <fromhost+0xc77c85da>
    1000:	00d073b3          	and	t2,zero,a3
    1004:	0070a423          	sw	t2,8(ra)
    1008:	00001097          	auipc	ra,0x1
    100c:	2b408093          	addi	ra,ra,692 # 22bc <signature_58_0>

00001010 <inst_171>:
    1010:	19d12637          	lui	a2,0x19d12
    1014:	02a60613          	addi	a2,a2,42 # 19d1202a <fromhost+0x19d0fa2a>
    1018:	27c31037          	lui	zero,0x27c31
    101c:	58f00013          	li	zero,1423
    1020:	00067c33          	and	s8,a2,zero
    1024:	0180a023          	sw	s8,0(ra)
    1028:	00000013          	nop
    102c:	00000013          	nop

00001030 <rvtest_code_end>:
    1030:	0ff0000f          	fence
    1034:	00000073          	ecall
	...

Disassembly of section .tohost:

00002500 <tohost>:
	...

00002600 <fromhost>:
	...
