
/home/hassan/nucleusrv/imperas-riscv-tests/work/rv32i_m/I/BEQ-01.elf:     file format elf32-littleriscv


Disassembly of section .text.init:

00000000 <rvtest_entry_point>:
       0:	0440006f          	j	44 <reset_vector>

00000004 <trap_vector>:
       4:	342022f3          	csrr	t0,mcause
       8:	00800313          	li	t1,8
       c:	02628663          	beq	t0,t1,38 <write_tohost>
      10:	00900313          	li	t1,9
      14:	02628263          	beq	t0,t1,38 <write_tohost>
      18:	00b00313          	li	t1,11
      1c:	00628e63          	beq	t0,t1,38 <write_tohost>
      20:	00000293          	li	t0,0
      24:	00028463          	beqz	t0,2c <trap_vector+0x28>
      28:	00028067          	jr	t0
      2c:	342022f3          	csrr	t0,mcause
      30:	0002d263          	bgez	t0,34 <handle_exception>

00000034 <handle_exception>:
      34:	5391e193          	ori	gp,gp,1337

00000038 <write_tohost>:
      38:	00002297          	auipc	t0,0x2
      3c:	4c32a423          	sw	gp,1224(t0) # 2500 <tohost>
      40:	ff9ff06f          	j	38 <write_tohost>

00000044 <reset_vector>:
      44:	00002537          	lui	a0,0x2
      48:	80050513          	addi	a0,a0,-2048 # 1800 <rvtest_code_begin+0x1688>
      4c:	30052073          	csrs	mstatus,a0
      50:	00000297          	auipc	t0,0x0
      54:	fb428293          	addi	t0,t0,-76 # 4 <trap_vector>
      58:	30529073          	csrw	mtvec,t0
      5c:	00000297          	auipc	t0,0x0
      60:	02428293          	addi	t0,t0,36 # 80 <rvtest_init>
      64:	34129073          	csrw	mepc,t0
      68:	f1402573          	csrr	a0,mhartid
      6c:	30200073          	mret
      70:	00000013          	nop
      74:	00000013          	nop
      78:	00000013          	nop
      7c:	00000013          	nop

00000080 <rvtest_init>:
      80:	feedc0b7          	lui	ra,0xfeedc
      84:	ead08093          	addi	ra,ra,-339 # feedbead <fromhost+0xfeed98ad>
      88:	ff76e137          	lui	sp,0xff76e
      8c:	f5610113          	addi	sp,sp,-170 # ff76df56 <fromhost+0xff76b956>
      90:	7fbb71b7          	lui	gp,0x7fbb7
      94:	fab18193          	addi	gp,gp,-85 # 7fbb6fab <fromhost+0x7fbb49ab>
      98:	bfddb237          	lui	tp,0xbfddb
      9c:	7d520213          	addi	tp,tp,2005 # bfddb7d5 <fromhost+0xbfdd91d5>
      a0:	00000297          	auipc	t0,0x0
      a4:	0d828293          	addi	t0,t0,216 # 178 <rvtest_code_begin>
      a8:	00002317          	auipc	t1,0x2
      ac:	f5830313          	addi	t1,t1,-168 # 2000 <rvtest_data_begin>
      b0:	b7fbb3b7          	lui	t2,0xb7fbb
      b4:	6fa38393          	addi	t2,t2,1786 # b7fbb6fa <fromhost+0xb7fb90fa>
      b8:	5bfde437          	lui	s0,0x5bfde
      bc:	b7d40413          	addi	s0,s0,-1155 # 5bfddb7d <fromhost+0x5bfdb57d>
      c0:	adfef4b7          	lui	s1,0xadfef
      c4:	dbe48493          	addi	s1,s1,-578 # adfeedbe <fromhost+0xadfec7be>
      c8:	56ff7537          	lui	a0,0x56ff7
      cc:	6df50513          	addi	a0,a0,1759 # 56ff76df <fromhost+0x56ff50df>
      d0:	ab7fc5b7          	lui	a1,0xab7fc
      d4:	b6f58593          	addi	a1,a1,-1169 # ab7fbb6f <fromhost+0xab7f956f>
      d8:	d5bfe637          	lui	a2,0xd5bfe
      dc:	db760613          	addi	a2,a2,-585 # d5bfddb7 <fromhost+0xd5bfb7b7>
      e0:	eadff6b7          	lui	a3,0xeadff
      e4:	edb68693          	addi	a3,a3,-293 # eadfeedb <fromhost+0xeadfc8db>
      e8:	f56ff737          	lui	a4,0xf56ff
      ec:	76d70713          	addi	a4,a4,1901 # f56ff76d <fromhost+0xf56fd16d>
      f0:	fab807b7          	lui	a5,0xfab80
      f4:	bb678793          	addi	a5,a5,-1098 # fab7fbb6 <fromhost+0xfab7d5b6>
      f8:	7d5c0837          	lui	a6,0x7d5c0
      fc:	ddb80813          	addi	a6,a6,-549 # 7d5bfddb <fromhost+0x7d5bd7db>
     100:	beae08b7          	lui	a7,0xbeae0
     104:	eed88893          	addi	a7,a7,-275 # beadfeed <fromhost+0xbeadd8ed>
     108:	df570937          	lui	s2,0xdf570
     10c:	f7690913          	addi	s2,s2,-138 # df56ff76 <fromhost+0xdf56d976>
     110:	6fab89b7          	lui	s3,0x6fab8
     114:	fbb98993          	addi	s3,s3,-69 # 6fab7fbb <fromhost+0x6fab59bb>
     118:	b7d5ca37          	lui	s4,0xb7d5c
     11c:	fdda0a13          	addi	s4,s4,-35 # b7d5bfdd <fromhost+0xb7d599dd>
     120:	dbeaeab7          	lui	s5,0xdbeae
     124:	feea8a93          	addi	s5,s5,-18 # dbeadfee <fromhost+0xdbeab9ee>
     128:	6df57b37          	lui	s6,0x6df57
     12c:	ff7b0b13          	addi	s6,s6,-9 # 6df56ff7 <fromhost+0x6df549f7>
     130:	b6fabbb7          	lui	s7,0xb6fab
     134:	7fbb8b93          	addi	s7,s7,2043 # b6fab7fb <fromhost+0xb6fa91fb>
     138:	db7d6c37          	lui	s8,0xdb7d6
     13c:	bfdc0c13          	addi	s8,s8,-1027 # db7d5bfd <fromhost+0xdb7d35fd>
     140:	edbebcb7          	lui	s9,0xedbeb
     144:	dfec8c93          	addi	s9,s9,-514 # edbeadfe <fromhost+0xedbe87fe>
     148:	76df5d37          	lui	s10,0x76df5
     14c:	6ffd0d13          	addi	s10,s10,1791 # 76df56ff <fromhost+0x76df30ff>
     150:	bb6fbdb7          	lui	s11,0xbb6fb
     154:	b7fd8d93          	addi	s11,s11,-1153 # bb6fab7f <fromhost+0xbb6f857f>
     158:	ddb7de37          	lui	t3,0xddb7d
     15c:	5bfe0e13          	addi	t3,t3,1471 # ddb7d5bf <fromhost+0xddb7afbf>
     160:	eedbfeb7          	lui	t4,0xeedbf
     164:	adfe8e93          	addi	t4,t4,-1313 # eedbeadf <fromhost+0xeedbc4df>
     168:	f76dff37          	lui	t5,0xf76df
     16c:	56ff0f13          	addi	t5,t5,1391 # f76df56f <fromhost+0xf76dcf6f>
     170:	fbb70fb7          	lui	t6,0xfbb70
     174:	ab7f8f93          	addi	t6,t6,-1353 # fbb6fab7 <fromhost+0xfbb6d4b7>

00000178 <rvtest_code_begin>:
     178:	00002097          	auipc	ra,0x2
     17c:	e9808093          	addi	ra,ra,-360 # 2010 <begin_signature>
     180:	0000d237          	lui	tp,0xd
     184:	ccc20213          	addi	tp,tp,-820 # cccc <fromhost+0xa6cc>
     188:	54f4b9b7          	lui	s3,0x54f4b
     18c:	eeb98993          	addi	s3,s3,-277 # 54f4aeeb <fromhost+0x54f488eb>
     190:	f4bcfe37          	lui	t3,0xf4bcf
     194:	4a7e0e13          	addi	t3,t3,1191 # f4bcf4a7 <fromhost+0xf4bccea7>
     198:	01c98663          	beq	s3,t3,1a4 <rvtest_code_begin+0x2c>
     19c:	00012237          	lui	tp,0x12
     1a0:	3ab20213          	addi	tp,tp,939 # 123ab <fromhost+0xfdab>
     1a4:	0040a023          	sw	tp,0(ra)
     1a8:	0000d237          	lui	tp,0xd
     1ac:	ccc20213          	addi	tp,tp,-820 # cccc <fromhost+0xa6cc>
     1b0:	e3978f37          	lui	t5,0xe3978
     1b4:	ec1f0f13          	addi	t5,t5,-319 # e3977ec1 <fromhost+0xe39758c1>
     1b8:	b2656a37          	lui	s4,0xb2656
     1bc:	6a0a0a13          	addi	s4,s4,1696 # b26566a0 <fromhost+0xb26540a0>
     1c0:	014f0663          	beq	t5,s4,1cc <rvtest_code_begin+0x54>
     1c4:	00012237          	lui	tp,0x12
     1c8:	3ab20213          	addi	tp,tp,939 # 123ab <fromhost+0xfdab>
     1cc:	0040a223          	sw	tp,4(ra)
     1d0:	0080006f          	j	1d8 <rvtest_code_begin+0x60>
     1d4:	0280006f          	j	1fc <rvtest_code_begin+0x84>
     1d8:	0000d237          	lui	tp,0xd
     1dc:	ccc20213          	addi	tp,tp,-820 # cccc <fromhost+0xa6cc>
     1e0:	f2701537          	lui	a0,0xf2701
     1e4:	8e650513          	addi	a0,a0,-1818 # f27008e6 <fromhost+0xf26fe2e6>
     1e8:	c3e26037          	lui	zero,0xc3e26
     1ec:	0bd00013          	li	zero,189
     1f0:	fe0502e3          	beqz	a0,1d4 <rvtest_code_begin+0x5c>
     1f4:	00012237          	lui	tp,0x12
     1f8:	3ab20213          	addi	tp,tp,939 # 123ab <fromhost+0xfdab>
     1fc:	0040a423          	sw	tp,8(ra)
     200:	0000d237          	lui	tp,0xd
     204:	ccc20213          	addi	tp,tp,-820 # cccc <fromhost+0xa6cc>
     208:	2f7b21b7          	lui	gp,0x2f7b2
     20c:	2b718193          	addi	gp,gp,695 # 2f7b22b7 <fromhost+0x2f7afcb7>
     210:	a783dfb7          	lui	t6,0xa783d
     214:	03ff8f93          	addi	t6,t6,63 # a783d03f <fromhost+0xa783aa3f>
     218:	01f18663          	beq	gp,t6,224 <rvtest_code_begin+0xac>
     21c:	00012237          	lui	tp,0x12
     220:	3ab20213          	addi	tp,tp,939 # 123ab <fromhost+0xfdab>
     224:	0040a623          	sw	tp,12(ra)
     228:	0000d237          	lui	tp,0xd
     22c:	ccc20213          	addi	tp,tp,-820 # cccc <fromhost+0xa6cc>
     230:	fd7baeb7          	lui	t4,0xfd7ba
     234:	df8e8e93          	addi	t4,t4,-520 # fd7b9df8 <fromhost+0xfd7b77f8>
     238:	807fe2b7          	lui	t0,0x807fe
     23c:	20328293          	addi	t0,t0,515 # 807fe203 <fromhost+0x807fbc03>
     240:	005e8663          	beq	t4,t0,24c <rvtest_code_begin+0xd4>
     244:	00012237          	lui	tp,0x12
     248:	3ab20213          	addi	tp,tp,939 # 123ab <fromhost+0xfdab>
     24c:	0040a823          	sw	tp,16(ra)
     250:	00002097          	auipc	ra,0x2
     254:	dd408093          	addi	ra,ra,-556 # 2024 <signature_2_0>
     258:	0000d2b7          	lui	t0,0xd
     25c:	ccc28293          	addi	t0,t0,-820 # cccc <fromhost+0xa6cc>
     260:	a14d0037          	lui	zero,0xa14d0
     264:	86600013          	li	zero,-1946
     268:	413f36b7          	lui	a3,0x413f3
     26c:	c6268693          	addi	a3,a3,-926 # 413f2c62 <fromhost+0x413f0662>
     270:	00d00663          	beq	zero,a3,27c <rvtest_code_begin+0x104>
     274:	000122b7          	lui	t0,0x12
     278:	3ab28293          	addi	t0,t0,939 # 123ab <fromhost+0xfdab>
     27c:	0050a023          	sw	t0,0(ra)
     280:	0000d2b7          	lui	t0,0xd
     284:	ccc28293          	addi	t0,t0,-820 # cccc <fromhost+0xa6cc>
     288:	2c371237          	lui	tp,0x2c371
     28c:	a9a20213          	addi	tp,tp,-1382 # 2c370a9a <fromhost+0x2c36e49a>
     290:	701515b7          	lui	a1,0x70151
     294:	2f558593          	addi	a1,a1,757 # 701512f5 <fromhost+0x7014ecf5>
     298:	00b20663          	beq	tp,a1,2a4 <rvtest_code_begin+0x12c>
     29c:	000122b7          	lui	t0,0x12
     2a0:	3ab28293          	addi	t0,t0,939 # 123ab <fromhost+0xfdab>
     2a4:	0050a223          	sw	t0,4(ra)
     2a8:	0080006f          	j	2b0 <rvtest_code_begin+0x138>
     2ac:	0280006f          	j	2d4 <rvtest_code_begin+0x15c>
     2b0:	0000d2b7          	lui	t0,0xd
     2b4:	ccc28293          	addi	t0,t0,-820 # cccc <fromhost+0xa6cc>
     2b8:	2a81bcb7          	lui	s9,0x2a81b
     2bc:	798c8c93          	addi	s9,s9,1944 # 2a81b798 <fromhost+0x2a819198>
     2c0:	91dd6137          	lui	sp,0x91dd6
     2c4:	ad610113          	addi	sp,sp,-1322 # 91dd5ad6 <fromhost+0x91dd34d6>
     2c8:	fe2c82e3          	beq	s9,sp,2ac <rvtest_code_begin+0x134>
     2cc:	000122b7          	lui	t0,0x12
     2d0:	3ab28293          	addi	t0,t0,939 # 123ab <fromhost+0xfdab>
     2d4:	0050a423          	sw	t0,8(ra)
     2d8:	0000d2b7          	lui	t0,0xd
     2dc:	ccc28293          	addi	t0,t0,-820 # cccc <fromhost+0xa6cc>
     2e0:	42f1d937          	lui	s2,0x42f1d
     2e4:	62990913          	addi	s2,s2,1577 # 42f1d629 <fromhost+0x42f1b029>
     2e8:	589f33b7          	lui	t2,0x589f3
     2ec:	ccd38393          	addi	t2,t2,-819 # 589f2ccd <fromhost+0x589f06cd>
     2f0:	00790663          	beq	s2,t2,2fc <rvtest_code_begin+0x184>
     2f4:	000122b7          	lui	t0,0x12
     2f8:	3ab28293          	addi	t0,t0,939 # 123ab <fromhost+0xfdab>
     2fc:	0050a623          	sw	t0,12(ra)
     300:	0000d2b7          	lui	t0,0xd
     304:	ccc28293          	addi	t0,t0,-820 # cccc <fromhost+0xa6cc>
     308:	014cf4b7          	lui	s1,0x14cf
     30c:	50e48493          	addi	s1,s1,1294 # 14cf50e <fromhost+0x14ccf0e>
     310:	4d237fb7          	lui	t6,0x4d237
     314:	af8f8f93          	addi	t6,t6,-1288 # 4d236af8 <fromhost+0x4d2344f8>
     318:	01f48663          	beq	s1,t6,324 <rvtest_code_begin+0x1ac>
     31c:	000122b7          	lui	t0,0x12
     320:	3ab28293          	addi	t0,t0,939 # 123ab <fromhost+0xfdab>
     324:	0050a823          	sw	t0,16(ra)
     328:	00002097          	auipc	ra,0x2
     32c:	d1008093          	addi	ra,ra,-752 # 2038 <signature_3_0>
     330:	0000d1b7          	lui	gp,0xd
     334:	ccc18193          	addi	gp,gp,-820 # cccc <fromhost+0xa6cc>
     338:	983ba8b7          	lui	a7,0x983ba
     33c:	f6388893          	addi	a7,a7,-157 # 983b9f63 <fromhost+0x983b7963>
     340:	242babb7          	lui	s7,0x242ba
     344:	878b8b93          	addi	s7,s7,-1928 # 242b9878 <fromhost+0x242b7278>
     348:	01788663          	beq	a7,s7,354 <rvtest_code_begin+0x1dc>
     34c:	000121b7          	lui	gp,0x12
     350:	3ab18193          	addi	gp,gp,939 # 123ab <fromhost+0xfdab>
     354:	0030a023          	sw	gp,0(ra)
     358:	0000d1b7          	lui	gp,0xd
     35c:	ccc18193          	addi	gp,gp,-820 # cccc <fromhost+0xa6cc>
     360:	28aaefb7          	lui	t6,0x28aae
     364:	b5bf8f93          	addi	t6,t6,-1189 # 28aadb5b <fromhost+0x28aab55b>
     368:	353a8ab7          	lui	s5,0x353a8
     36c:	593a8a93          	addi	s5,s5,1427 # 353a8593 <fromhost+0x353a5f93>
     370:	015f8663          	beq	t6,s5,37c <rvtest_code_begin+0x204>
     374:	000121b7          	lui	gp,0x12
     378:	3ab18193          	addi	gp,gp,939 # 123ab <fromhost+0xfdab>
     37c:	0030a223          	sw	gp,4(ra)
     380:	0080006f          	j	388 <rvtest_code_begin+0x210>
     384:	0280006f          	j	3ac <rvtest_code_begin+0x234>
     388:	0000d1b7          	lui	gp,0xd
     38c:	ccc18193          	addi	gp,gp,-820 # cccc <fromhost+0xa6cc>
     390:	66269037          	lui	zero,0x66269
     394:	a1a00013          	li	zero,-1510
     398:	c357cf37          	lui	t5,0xc357c
     39c:	925f0f13          	addi	t5,t5,-1755 # c357b925 <fromhost+0xc3579325>
     3a0:	ffe002e3          	beq	zero,t5,384 <rvtest_code_begin+0x20c>
     3a4:	000121b7          	lui	gp,0x12
     3a8:	3ab18193          	addi	gp,gp,939 # 123ab <fromhost+0xfdab>
     3ac:	0030a423          	sw	gp,8(ra)
     3b0:	0000d1b7          	lui	gp,0xd
     3b4:	ccc18193          	addi	gp,gp,-820 # cccc <fromhost+0xa6cc>
     3b8:	ba419037          	lui	zero,0xba419
     3bc:	4f800013          	li	zero,1272
     3c0:	dc3718b7          	lui	a7,0xdc371
     3c4:	3a288893          	addi	a7,a7,930 # dc3713a2 <fromhost+0xdc36eda2>
     3c8:	01100663          	beq	zero,a7,3d4 <rvtest_code_begin+0x25c>
     3cc:	000121b7          	lui	gp,0x12
     3d0:	3ab18193          	addi	gp,gp,939 # 123ab <fromhost+0xfdab>
     3d4:	0030a623          	sw	gp,12(ra)
     3d8:	0000d1b7          	lui	gp,0xd
     3dc:	ccc18193          	addi	gp,gp,-820 # cccc <fromhost+0xa6cc>
     3e0:	74674fb7          	lui	t6,0x74674
     3e4:	399f8f93          	addi	t6,t6,921 # 74674399 <fromhost+0x74671d99>
     3e8:	2ed73337          	lui	t1,0x2ed73
     3ec:	9e030313          	addi	t1,t1,-1568 # 2ed729e0 <fromhost+0x2ed703e0>
     3f0:	006f8663          	beq	t6,t1,3fc <rvtest_code_begin+0x284>
     3f4:	000121b7          	lui	gp,0x12
     3f8:	3ab18193          	addi	gp,gp,939 # 123ab <fromhost+0xfdab>
     3fc:	0030a823          	sw	gp,16(ra)
     400:	00002097          	auipc	ra,0x2
     404:	c4c08093          	addi	ra,ra,-948 # 204c <signature_4_0>
     408:	0000d2b7          	lui	t0,0xd
     40c:	ccc28293          	addi	t0,t0,-820 # cccc <fromhost+0xa6cc>
     410:	5b5775b7          	lui	a1,0x5b577
     414:	16e58593          	addi	a1,a1,366 # 5b57716e <fromhost+0x5b574b6e>
     418:	82565b37          	lui	s6,0x82565
     41c:	8e4b0b13          	addi	s6,s6,-1820 # 825648e4 <fromhost+0x825622e4>
     420:	01658663          	beq	a1,s6,42c <rvtest_code_begin+0x2b4>
     424:	000122b7          	lui	t0,0x12
     428:	3ab28293          	addi	t0,t0,939 # 123ab <fromhost+0xfdab>
     42c:	0050a023          	sw	t0,0(ra)
     430:	0000d2b7          	lui	t0,0xd
     434:	ccc28293          	addi	t0,t0,-820 # cccc <fromhost+0xa6cc>
     438:	7bf4f4b7          	lui	s1,0x7bf4f
     43c:	f1c48493          	addi	s1,s1,-228 # 7bf4ef1c <fromhost+0x7bf4c91c>
     440:	f4cc3137          	lui	sp,0xf4cc3
     444:	0bc10113          	addi	sp,sp,188 # f4cc30bc <fromhost+0xf4cc0abc>
     448:	00248663          	beq	s1,sp,454 <rvtest_code_begin+0x2dc>
     44c:	000122b7          	lui	t0,0x12
     450:	3ab28293          	addi	t0,t0,939 # 123ab <fromhost+0xfdab>
     454:	0050a223          	sw	t0,4(ra)
     458:	0080006f          	j	460 <rvtest_code_begin+0x2e8>
     45c:	0280006f          	j	484 <rvtest_code_begin+0x30c>
     460:	0000d2b7          	lui	t0,0xd
     464:	ccc28293          	addi	t0,t0,-820 # cccc <fromhost+0xa6cc>
     468:	35a0f3b7          	lui	t2,0x35a0f
     46c:	c8038393          	addi	t2,t2,-896 # 35a0ec80 <fromhost+0x35a0c680>
     470:	fe9b96b7          	lui	a3,0xfe9b9
     474:	abf68693          	addi	a3,a3,-1345 # fe9b8abf <fromhost+0xfe9b64bf>
     478:	fed382e3          	beq	t2,a3,45c <rvtest_code_begin+0x2e4>
     47c:	000122b7          	lui	t0,0x12
     480:	3ab28293          	addi	t0,t0,939 # 123ab <fromhost+0xfdab>
     484:	0050a423          	sw	t0,8(ra)
     488:	0000d2b7          	lui	t0,0xd
     48c:	ccc28293          	addi	t0,t0,-820 # cccc <fromhost+0xa6cc>
     490:	347ec3b7          	lui	t2,0x347ec
     494:	c8938393          	addi	t2,t2,-887 # 347ebc89 <fromhost+0x347e9689>
     498:	8cc7e1b7          	lui	gp,0x8cc7e
     49c:	79018193          	addi	gp,gp,1936 # 8cc7e790 <fromhost+0x8cc7c190>
     4a0:	00338663          	beq	t2,gp,4ac <rvtest_code_begin+0x334>
     4a4:	000122b7          	lui	t0,0x12
     4a8:	3ab28293          	addi	t0,t0,939 # 123ab <fromhost+0xfdab>
     4ac:	0050a623          	sw	t0,12(ra)
     4b0:	0000d2b7          	lui	t0,0xd
     4b4:	ccc28293          	addi	t0,t0,-820 # cccc <fromhost+0xa6cc>
     4b8:	a5c8e6b7          	lui	a3,0xa5c8e
     4bc:	86068693          	addi	a3,a3,-1952 # a5c8d860 <fromhost+0xa5c8b260>
     4c0:	caa4cc37          	lui	s8,0xcaa4c
     4c4:	80ec0c13          	addi	s8,s8,-2034 # caa4b80e <fromhost+0xcaa4920e>
     4c8:	01868663          	beq	a3,s8,4d4 <rvtest_code_begin+0x35c>
     4cc:	000122b7          	lui	t0,0x12
     4d0:	3ab28293          	addi	t0,t0,939 # 123ab <fromhost+0xfdab>
     4d4:	0050a823          	sw	t0,16(ra)
     4d8:	00002097          	auipc	ra,0x2
     4dc:	b8808093          	addi	ra,ra,-1144 # 2060 <signature_5_0>
     4e0:	0000d2b7          	lui	t0,0xd
     4e4:	ccc28293          	addi	t0,t0,-820 # cccc <fromhost+0xa6cc>
     4e8:	efc02637          	lui	a2,0xefc02
     4ec:	cef60613          	addi	a2,a2,-785 # efc01cef <fromhost+0xefbff6ef>
     4f0:	fe96b1b7          	lui	gp,0xfe96b
     4f4:	94818193          	addi	gp,gp,-1720 # fe96a948 <fromhost+0xfe968348>
     4f8:	00360663          	beq	a2,gp,504 <rvtest_code_begin+0x38c>
     4fc:	000122b7          	lui	t0,0x12
     500:	3ab28293          	addi	t0,t0,939 # 123ab <fromhost+0xfdab>
     504:	0050a023          	sw	t0,0(ra)
     508:	0000d2b7          	lui	t0,0xd
     50c:	ccc28293          	addi	t0,t0,-820 # cccc <fromhost+0xa6cc>
     510:	89c6d8b7          	lui	a7,0x89c6d
     514:	66488893          	addi	a7,a7,1636 # 89c6d664 <fromhost+0x89c6b064>
     518:	8fe8a737          	lui	a4,0x8fe8a
     51c:	d2370713          	addi	a4,a4,-733 # 8fe89d23 <fromhost+0x8fe87723>
     520:	00e88663          	beq	a7,a4,52c <rvtest_code_begin+0x3b4>
     524:	000122b7          	lui	t0,0x12
     528:	3ab28293          	addi	t0,t0,939 # 123ab <fromhost+0xfdab>
     52c:	0050a223          	sw	t0,4(ra)
     530:	0080006f          	j	538 <rvtest_code_begin+0x3c0>
     534:	0280006f          	j	55c <rvtest_code_begin+0x3e4>
     538:	0000d2b7          	lui	t0,0xd
     53c:	ccc28293          	addi	t0,t0,-820 # cccc <fromhost+0xa6cc>
     540:	a89d3fb7          	lui	t6,0xa89d3
     544:	964f8f93          	addi	t6,t6,-1692 # a89d2964 <fromhost+0xa89d0364>
     548:	e10f4a37          	lui	s4,0xe10f4
     54c:	f75a0a13          	addi	s4,s4,-139 # e10f3f75 <fromhost+0xe10f1975>
     550:	ff4f82e3          	beq	t6,s4,534 <rvtest_code_begin+0x3bc>
     554:	000122b7          	lui	t0,0x12
     558:	3ab28293          	addi	t0,t0,939 # 123ab <fromhost+0xfdab>
     55c:	0050a423          	sw	t0,8(ra)
     560:	0000d2b7          	lui	t0,0xd
     564:	ccc28293          	addi	t0,t0,-820 # cccc <fromhost+0xa6cc>
     568:	5252d937          	lui	s2,0x5252d
     56c:	e3b90913          	addi	s2,s2,-453 # 5252ce3b <fromhost+0x5252a83b>
     570:	103e6237          	lui	tp,0x103e6
     574:	51520213          	addi	tp,tp,1301 # 103e6515 <fromhost+0x103e3f15>
     578:	00490663          	beq	s2,tp,584 <rvtest_code_begin+0x40c>
     57c:	000122b7          	lui	t0,0x12
     580:	3ab28293          	addi	t0,t0,939 # 123ab <fromhost+0xfdab>
     584:	0050a623          	sw	t0,12(ra)
     588:	0000d2b7          	lui	t0,0xd
     58c:	ccc28293          	addi	t0,t0,-820 # cccc <fromhost+0xa6cc>
     590:	0eff4eb7          	lui	t4,0xeff4
     594:	765e8e93          	addi	t4,t4,1893 # eff4765 <fromhost+0xeff2165>
     598:	bd563f37          	lui	t5,0xbd563
     59c:	c12f0f13          	addi	t5,t5,-1006 # bd562c12 <fromhost+0xbd560612>
     5a0:	01ee8663          	beq	t4,t5,5ac <rvtest_code_begin+0x434>
     5a4:	000122b7          	lui	t0,0x12
     5a8:	3ab28293          	addi	t0,t0,939 # 123ab <fromhost+0xfdab>
     5ac:	0050a823          	sw	t0,16(ra)
     5b0:	00002117          	auipc	sp,0x2
     5b4:	ac410113          	addi	sp,sp,-1340 # 2074 <signature_6_0>
     5b8:	0000d2b7          	lui	t0,0xd
     5bc:	ccc28293          	addi	t0,t0,-820 # cccc <fromhost+0xa6cc>
     5c0:	604228b7          	lui	a7,0x60422
     5c4:	95f88893          	addi	a7,a7,-1697 # 6042195f <fromhost+0x6041f35f>
     5c8:	0823f0b7          	lui	ra,0x823f
     5cc:	2c508093          	addi	ra,ra,709 # 823f2c5 <fromhost+0x823ccc5>
     5d0:	00188663          	beq	a7,ra,5dc <rvtest_code_begin+0x464>
     5d4:	000122b7          	lui	t0,0x12
     5d8:	3ab28293          	addi	t0,t0,939 # 123ab <fromhost+0xfdab>
     5dc:	00512023          	sw	t0,0(sp)
     5e0:	0000d2b7          	lui	t0,0xd
     5e4:	ccc28293          	addi	t0,t0,-820 # cccc <fromhost+0xa6cc>
     5e8:	163ddb37          	lui	s6,0x163dd
     5ec:	610b0b13          	addi	s6,s6,1552 # 163dd610 <fromhost+0x163db010>
     5f0:	92d201b7          	lui	gp,0x92d20
     5f4:	b3e18193          	addi	gp,gp,-1218 # 92d1fb3e <fromhost+0x92d1d53e>
     5f8:	003b0663          	beq	s6,gp,604 <rvtest_code_begin+0x48c>
     5fc:	000122b7          	lui	t0,0x12
     600:	3ab28293          	addi	t0,t0,939 # 123ab <fromhost+0xfdab>
     604:	00512223          	sw	t0,4(sp)
     608:	0080006f          	j	610 <rvtest_code_begin+0x498>
     60c:	0280006f          	j	634 <rvtest_code_begin+0x4bc>
     610:	0000d2b7          	lui	t0,0xd
     614:	ccc28293          	addi	t0,t0,-820 # cccc <fromhost+0xa6cc>
     618:	08ce61b7          	lui	gp,0x8ce6
     61c:	97c18193          	addi	gp,gp,-1668 # 8ce597c <fromhost+0x8ce337c>
     620:	6a6a09b7          	lui	s3,0x6a6a0
     624:	4cf98993          	addi	s3,s3,1231 # 6a6a04cf <fromhost+0x6a69decf>
     628:	ff3182e3          	beq	gp,s3,60c <rvtest_code_begin+0x494>
     62c:	000122b7          	lui	t0,0x12
     630:	3ab28293          	addi	t0,t0,939 # 123ab <fromhost+0xfdab>
     634:	00512423          	sw	t0,8(sp)
     638:	0000d2b7          	lui	t0,0xd
     63c:	ccc28293          	addi	t0,t0,-820 # cccc <fromhost+0xa6cc>
     640:	2814a7b7          	lui	a5,0x2814a
     644:	f7078793          	addi	a5,a5,-144 # 28149f70 <fromhost+0x28147970>
     648:	ff3546b7          	lui	a3,0xff354
     64c:	4a968693          	addi	a3,a3,1193 # ff3544a9 <fromhost+0xff351ea9>
     650:	00d78663          	beq	a5,a3,65c <rvtest_code_begin+0x4e4>
     654:	000122b7          	lui	t0,0x12
     658:	3ab28293          	addi	t0,t0,939 # 123ab <fromhost+0xfdab>
     65c:	00512623          	sw	t0,12(sp)
     660:	0000d2b7          	lui	t0,0xd
     664:	ccc28293          	addi	t0,t0,-820 # cccc <fromhost+0xa6cc>
     668:	7ba97e37          	lui	t3,0x7ba97
     66c:	852e0e13          	addi	t3,t3,-1966 # 7ba96852 <fromhost+0x7ba94252>
     670:	e855b337          	lui	t1,0xe855b
     674:	90d30313          	addi	t1,t1,-1779 # e855a90d <fromhost+0xe855830d>
     678:	006e0663          	beq	t3,t1,684 <rvtest_code_begin+0x50c>
     67c:	000122b7          	lui	t0,0x12
     680:	3ab28293          	addi	t0,t0,939 # 123ab <fromhost+0xfdab>
     684:	00512823          	sw	t0,16(sp)
     688:	00002097          	auipc	ra,0x2
     68c:	a0008093          	addi	ra,ra,-1536 # 2088 <signature_7_0>
     690:	0000d1b7          	lui	gp,0xd
     694:	ccc18193          	addi	gp,gp,-820 # cccc <fromhost+0xa6cc>
     698:	00000713          	li	a4,0
     69c:	80000337          	lui	t1,0x80000
     6a0:	fff30313          	addi	t1,t1,-1 # 7fffffff <fromhost+0x7fffd9ff>
     6a4:	00670663          	beq	a4,t1,6b0 <rvtest_code_begin+0x538>
     6a8:	000121b7          	lui	gp,0x12
     6ac:	3ab18193          	addi	gp,gp,939 # 123ab <fromhost+0xfdab>
     6b0:	0030a023          	sw	gp,0(ra)
     6b4:	0000d1b7          	lui	gp,0xd
     6b8:	ccc18193          	addi	gp,gp,-820 # cccc <fromhost+0xa6cc>
     6bc:	00000493          	li	s1,0
     6c0:	800008b7          	lui	a7,0x80000
     6c4:	01148663          	beq	s1,a7,6d0 <rvtest_code_begin+0x558>
     6c8:	000121b7          	lui	gp,0x12
     6cc:	3ab18193          	addi	gp,gp,939 # 123ab <fromhost+0xfdab>
     6d0:	0030a223          	sw	gp,4(ra)
     6d4:	0080006f          	j	6dc <rvtest_code_begin+0x564>
     6d8:	0200006f          	j	6f8 <rvtest_code_begin+0x580>
     6dc:	0000d1b7          	lui	gp,0xd
     6e0:	ccc18193          	addi	gp,gp,-820 # cccc <fromhost+0xa6cc>
     6e4:	fff00513          	li	a0,-1
     6e8:	fff00713          	li	a4,-1
     6ec:	fee506e3          	beq	a0,a4,6d8 <rvtest_code_begin+0x560>
     6f0:	000121b7          	lui	gp,0x12
     6f4:	3ab18193          	addi	gp,gp,939 # 123ab <fromhost+0xfdab>
     6f8:	0030a423          	sw	gp,8(ra)
     6fc:	0000d1b7          	lui	gp,0xd
     700:	ccc18193          	addi	gp,gp,-820 # cccc <fromhost+0xa6cc>
     704:	80000337          	lui	t1,0x80000
     708:	fff30313          	addi	t1,t1,-1 # 7fffffff <fromhost+0x7fffd9ff>
     70c:	fff00b13          	li	s6,-1
     710:	01630663          	beq	t1,s6,71c <rvtest_code_begin+0x5a4>
     714:	000121b7          	lui	gp,0x12
     718:	3ab18193          	addi	gp,gp,939 # 123ab <fromhost+0xfdab>
     71c:	0030a623          	sw	gp,12(ra)
     720:	0000d1b7          	lui	gp,0xd
     724:	ccc18193          	addi	gp,gp,-820 # cccc <fromhost+0xa6cc>
     728:	80000037          	lui	zero,0x80000
     72c:	00000013          	nop
     730:	fff00993          	li	s3,-1
     734:	01300663          	beq	zero,s3,740 <rvtest_code_begin+0x5c8>
     738:	000121b7          	lui	gp,0x12
     73c:	3ab18193          	addi	gp,gp,939 # 123ab <fromhost+0xfdab>
     740:	0030a823          	sw	gp,16(ra)
     744:	00002097          	auipc	ra,0x2
     748:	95808093          	addi	ra,ra,-1704 # 209c <signature_8_0>
     74c:	0000d1b7          	lui	gp,0xd
     750:	ccc18193          	addi	gp,gp,-820 # cccc <fromhost+0xa6cc>
     754:	fff00e13          	li	t3,-1
     758:	00000993          	li	s3,0
     75c:	013e0663          	beq	t3,s3,768 <rvtest_code_begin+0x5f0>
     760:	000121b7          	lui	gp,0x12
     764:	3ab18193          	addi	gp,gp,939 # 123ab <fromhost+0xfdab>
     768:	0030a023          	sw	gp,0(ra)
     76c:	0000d1b7          	lui	gp,0xd
     770:	ccc18193          	addi	gp,gp,-820 # cccc <fromhost+0xa6cc>
     774:	fff00f93          	li	t6,-1
     778:	00000f13          	li	t5,0
     77c:	01ef8663          	beq	t6,t5,788 <rvtest_code_begin+0x610>
     780:	000121b7          	lui	gp,0x12
     784:	3ab18193          	addi	gp,gp,939 # 123ab <fromhost+0xfdab>
     788:	0030a223          	sw	gp,4(ra)
     78c:	0080006f          	j	794 <rvtest_code_begin+0x61c>
     790:	0200006f          	j	7b0 <rvtest_code_begin+0x638>
     794:	0000d1b7          	lui	gp,0xd
     798:	ccc18193          	addi	gp,gp,-820 # cccc <fromhost+0xa6cc>
     79c:	fff00d93          	li	s11,-1
     7a0:	fff00a93          	li	s5,-1
     7a4:	ff5d86e3          	beq	s11,s5,790 <rvtest_code_begin+0x618>
     7a8:	000121b7          	lui	gp,0x12
     7ac:	3ab18193          	addi	gp,gp,939 # 123ab <fromhost+0xfdab>
     7b0:	0030a423          	sw	gp,8(ra)
     7b4:	0000d1b7          	lui	gp,0xd
     7b8:	ccc18193          	addi	gp,gp,-820 # cccc <fromhost+0xa6cc>
     7bc:	00000b93          	li	s7,0
     7c0:	80000837          	lui	a6,0x80000
     7c4:	fff80813          	addi	a6,a6,-1 # 7fffffff <fromhost+0x7fffd9ff>
     7c8:	010b8663          	beq	s7,a6,7d4 <rvtest_code_begin+0x65c>
     7cc:	000121b7          	lui	gp,0x12
     7d0:	3ab18193          	addi	gp,gp,939 # 123ab <fromhost+0xfdab>
     7d4:	0030a623          	sw	gp,12(ra)
     7d8:	0000d1b7          	lui	gp,0xd
     7dc:	ccc18193          	addi	gp,gp,-820 # cccc <fromhost+0xa6cc>
     7e0:	00000c13          	li	s8,0
     7e4:	80000e37          	lui	t3,0x80000
     7e8:	01cc0663          	beq	s8,t3,7f4 <rvtest_code_begin+0x67c>
     7ec:	000121b7          	lui	gp,0x12
     7f0:	3ab18193          	addi	gp,gp,939 # 123ab <fromhost+0xfdab>
     7f4:	0030a823          	sw	gp,16(ra)
     7f8:	00002317          	auipc	t1,0x2
     7fc:	8b830313          	addi	t1,t1,-1864 # 20b0 <signature_9_0>
     800:	0000d437          	lui	s0,0xd
     804:	ccc40413          	addi	s0,s0,-820 # cccc <fromhost+0xa6cc>
     808:	00100093          	li	ra,1
     80c:	ffe00113          	li	sp,-2
     810:	00208663          	beq	ra,sp,81c <rvtest_code_begin+0x6a4>
     814:	00012437          	lui	s0,0x12
     818:	3ab40413          	addi	s0,s0,939 # 123ab <fromhost+0xfdab>
     81c:	00832023          	sw	s0,0(t1)
     820:	0000d437          	lui	s0,0xd
     824:	ccc40413          	addi	s0,s0,-820 # cccc <fromhost+0xa6cc>
     828:	00200093          	li	ra,2
     82c:	80000137          	lui	sp,0x80000
     830:	fff10113          	addi	sp,sp,-1 # 7fffffff <fromhost+0x7fffd9ff>
     834:	00208663          	beq	ra,sp,840 <rvtest_code_begin+0x6c8>
     838:	00012437          	lui	s0,0x12
     83c:	3ab40413          	addi	s0,s0,939 # 123ab <fromhost+0xfdab>
     840:	00832223          	sw	s0,4(t1)
     844:	0080006f          	j	84c <rvtest_code_begin+0x6d4>
     848:	0240006f          	j	86c <rvtest_code_begin+0x6f4>
     84c:	0000d437          	lui	s0,0xd
     850:	ccc40413          	addi	s0,s0,-820 # cccc <fromhost+0xa6cc>
     854:	00400113          	li	sp,4
     858:	c00001b7          	lui	gp,0xc0000
     85c:	fff18193          	addi	gp,gp,-1 # bfffffff <fromhost+0xbfffd9ff>
     860:	fe3104e3          	beq	sp,gp,848 <rvtest_code_begin+0x6d0>
     864:	00012437          	lui	s0,0x12
     868:	3ab40413          	addi	s0,s0,939 # 123ab <fromhost+0xfdab>
     86c:	00832423          	sw	s0,8(t1)
     870:	0000d437          	lui	s0,0xd
     874:	ccc40413          	addi	s0,s0,-820 # cccc <fromhost+0xa6cc>
     878:	00800193          	li	gp,8
     87c:	e0000237          	lui	tp,0xe0000
     880:	fff20213          	addi	tp,tp,-1 # dfffffff <fromhost+0xdfffd9ff>
     884:	00418663          	beq	gp,tp,890 <rvtest_code_begin+0x718>
     888:	00012437          	lui	s0,0x12
     88c:	3ab40413          	addi	s0,s0,939 # 123ab <fromhost+0xfdab>
     890:	00832623          	sw	s0,12(t1)
     894:	0000d437          	lui	s0,0xd
     898:	ccc40413          	addi	s0,s0,-820 # cccc <fromhost+0xa6cc>
     89c:	01000213          	li	tp,16
     8a0:	f00002b7          	lui	t0,0xf0000
     8a4:	fff28293          	addi	t0,t0,-1 # efffffff <fromhost+0xefffd9ff>
     8a8:	00520663          	beq	tp,t0,8b4 <rvtest_code_begin+0x73c>
     8ac:	00012437          	lui	s0,0x12
     8b0:	3ab40413          	addi	s0,s0,939 # 123ab <fromhost+0xfdab>
     8b4:	00832823          	sw	s0,16(t1)
     8b8:	00002097          	auipc	ra,0x2
     8bc:	80c08093          	addi	ra,ra,-2036 # 20c4 <signature_10_0>
     8c0:	0000d1b7          	lui	gp,0xd
     8c4:	ccc18193          	addi	gp,gp,-820 # cccc <fromhost+0xa6cc>
     8c8:	02000293          	li	t0,32
     8cc:	f8000337          	lui	t1,0xf8000
     8d0:	fff30313          	addi	t1,t1,-1 # f7ffffff <fromhost+0xf7ffd9ff>
     8d4:	00628663          	beq	t0,t1,8e0 <rvtest_code_begin+0x768>
     8d8:	000121b7          	lui	gp,0x12
     8dc:	3ab18193          	addi	gp,gp,939 # 123ab <fromhost+0xfdab>
     8e0:	0030a023          	sw	gp,0(ra)
     8e4:	0000d1b7          	lui	gp,0xd
     8e8:	ccc18193          	addi	gp,gp,-820 # cccc <fromhost+0xa6cc>
     8ec:	04000313          	li	t1,64
     8f0:	fc0003b7          	lui	t2,0xfc000
     8f4:	fff38393          	addi	t2,t2,-1 # fbffffff <fromhost+0xfbffd9ff>
     8f8:	00730663          	beq	t1,t2,904 <rvtest_code_begin+0x78c>
     8fc:	000121b7          	lui	gp,0x12
     900:	3ab18193          	addi	gp,gp,939 # 123ab <fromhost+0xfdab>
     904:	0030a223          	sw	gp,4(ra)
     908:	0080006f          	j	910 <rvtest_code_begin+0x798>
     90c:	0240006f          	j	930 <rvtest_code_begin+0x7b8>
     910:	0000d1b7          	lui	gp,0xd
     914:	ccc18193          	addi	gp,gp,-820 # cccc <fromhost+0xa6cc>
     918:	08000393          	li	t2,128
     91c:	fe000437          	lui	s0,0xfe000
     920:	fff40413          	addi	s0,s0,-1 # fdffffff <fromhost+0xfdffd9ff>
     924:	fe8384e3          	beq	t2,s0,90c <rvtest_code_begin+0x794>
     928:	000121b7          	lui	gp,0x12
     92c:	3ab18193          	addi	gp,gp,939 # 123ab <fromhost+0xfdab>
     930:	0030a423          	sw	gp,8(ra)
     934:	0000d1b7          	lui	gp,0xd
     938:	ccc18193          	addi	gp,gp,-820 # cccc <fromhost+0xa6cc>
     93c:	10000413          	li	s0,256
     940:	ff0004b7          	lui	s1,0xff000
     944:	fff48493          	addi	s1,s1,-1 # feffffff <fromhost+0xfeffd9ff>
     948:	00940663          	beq	s0,s1,954 <rvtest_code_begin+0x7dc>
     94c:	000121b7          	lui	gp,0x12
     950:	3ab18193          	addi	gp,gp,939 # 123ab <fromhost+0xfdab>
     954:	0030a623          	sw	gp,12(ra)
     958:	0000d1b7          	lui	gp,0xd
     95c:	ccc18193          	addi	gp,gp,-820 # cccc <fromhost+0xa6cc>
     960:	20000493          	li	s1,512
     964:	ff800537          	lui	a0,0xff800
     968:	fff50513          	addi	a0,a0,-1 # ff7fffff <fromhost+0xff7fd9ff>
     96c:	00a48663          	beq	s1,a0,978 <rvtest_code_begin+0x800>
     970:	000121b7          	lui	gp,0x12
     974:	3ab18193          	addi	gp,gp,939 # 123ab <fromhost+0xfdab>
     978:	0030a823          	sw	gp,16(ra)
     97c:	00001097          	auipc	ra,0x1
     980:	75c08093          	addi	ra,ra,1884 # 20d8 <signature_11_0>
     984:	0000d1b7          	lui	gp,0xd
     988:	ccc18193          	addi	gp,gp,-820 # cccc <fromhost+0xa6cc>
     98c:	40000513          	li	a0,1024
     990:	ffc005b7          	lui	a1,0xffc00
     994:	fff58593          	addi	a1,a1,-1 # ffbfffff <fromhost+0xffbfd9ff>
     998:	00b50663          	beq	a0,a1,9a4 <rvtest_code_begin+0x82c>
     99c:	000121b7          	lui	gp,0x12
     9a0:	3ab18193          	addi	gp,gp,939 # 123ab <fromhost+0xfdab>
     9a4:	0030a023          	sw	gp,0(ra)
     9a8:	0000d1b7          	lui	gp,0xd
     9ac:	ccc18193          	addi	gp,gp,-820 # cccc <fromhost+0xa6cc>
     9b0:	000015b7          	lui	a1,0x1
     9b4:	80058593          	addi	a1,a1,-2048 # 800 <rvtest_code_begin+0x688>
     9b8:	ffe00637          	lui	a2,0xffe00
     9bc:	fff60613          	addi	a2,a2,-1 # ffdfffff <fromhost+0xffdfd9ff>
     9c0:	00c58663          	beq	a1,a2,9cc <rvtest_code_begin+0x854>
     9c4:	000121b7          	lui	gp,0x12
     9c8:	3ab18193          	addi	gp,gp,939 # 123ab <fromhost+0xfdab>
     9cc:	0030a223          	sw	gp,4(ra)
     9d0:	0080006f          	j	9d8 <rvtest_code_begin+0x860>
     9d4:	0240006f          	j	9f8 <rvtest_code_begin+0x880>
     9d8:	0000d1b7          	lui	gp,0xd
     9dc:	ccc18193          	addi	gp,gp,-820 # cccc <fromhost+0xa6cc>
     9e0:	00001637          	lui	a2,0x1
     9e4:	fff006b7          	lui	a3,0xfff00
     9e8:	fff68693          	addi	a3,a3,-1 # ffefffff <fromhost+0xffefd9ff>
     9ec:	fed604e3          	beq	a2,a3,9d4 <rvtest_code_begin+0x85c>
     9f0:	000121b7          	lui	gp,0x12
     9f4:	3ab18193          	addi	gp,gp,939 # 123ab <fromhost+0xfdab>
     9f8:	0030a423          	sw	gp,8(ra)
     9fc:	0000d1b7          	lui	gp,0xd
     a00:	ccc18193          	addi	gp,gp,-820 # cccc <fromhost+0xa6cc>
     a04:	000026b7          	lui	a3,0x2
     a08:	fff80737          	lui	a4,0xfff80
     a0c:	fff70713          	addi	a4,a4,-1 # fff7ffff <fromhost+0xfff7d9ff>
     a10:	00e68663          	beq	a3,a4,a1c <rvtest_code_begin+0x8a4>
     a14:	000121b7          	lui	gp,0x12
     a18:	3ab18193          	addi	gp,gp,939 # 123ab <fromhost+0xfdab>
     a1c:	0030a623          	sw	gp,12(ra)
     a20:	0000d1b7          	lui	gp,0xd
     a24:	ccc18193          	addi	gp,gp,-820 # cccc <fromhost+0xa6cc>
     a28:	00004737          	lui	a4,0x4
     a2c:	fffc07b7          	lui	a5,0xfffc0
     a30:	fff78793          	addi	a5,a5,-1 # fffbffff <fromhost+0xfffbd9ff>
     a34:	00f70663          	beq	a4,a5,a40 <rvtest_code_begin+0x8c8>
     a38:	000121b7          	lui	gp,0x12
     a3c:	3ab18193          	addi	gp,gp,939 # 123ab <fromhost+0xfdab>
     a40:	0030a823          	sw	gp,16(ra)
     a44:	00001097          	auipc	ra,0x1
     a48:	6a808093          	addi	ra,ra,1704 # 20ec <signature_12_0>
     a4c:	0000d1b7          	lui	gp,0xd
     a50:	ccc18193          	addi	gp,gp,-820 # cccc <fromhost+0xa6cc>
     a54:	000087b7          	lui	a5,0x8
     a58:	fffe0837          	lui	a6,0xfffe0
     a5c:	fff80813          	addi	a6,a6,-1 # fffdffff <fromhost+0xfffdd9ff>
     a60:	01078663          	beq	a5,a6,a6c <rvtest_code_begin+0x8f4>
     a64:	000121b7          	lui	gp,0x12
     a68:	3ab18193          	addi	gp,gp,939 # 123ab <fromhost+0xfdab>
     a6c:	0030a023          	sw	gp,0(ra)
     a70:	0000d1b7          	lui	gp,0xd
     a74:	ccc18193          	addi	gp,gp,-820 # cccc <fromhost+0xa6cc>
     a78:	00010837          	lui	a6,0x10
     a7c:	ffff08b7          	lui	a7,0xffff0
     a80:	fff88893          	addi	a7,a7,-1 # fffeffff <fromhost+0xfffed9ff>
     a84:	01180663          	beq	a6,a7,a90 <rvtest_code_begin+0x918>
     a88:	000121b7          	lui	gp,0x12
     a8c:	3ab18193          	addi	gp,gp,939 # 123ab <fromhost+0xfdab>
     a90:	0030a223          	sw	gp,4(ra)
     a94:	0080006f          	j	a9c <rvtest_code_begin+0x924>
     a98:	0240006f          	j	abc <rvtest_code_begin+0x944>
     a9c:	0000d1b7          	lui	gp,0xd
     aa0:	ccc18193          	addi	gp,gp,-820 # cccc <fromhost+0xa6cc>
     aa4:	000208b7          	lui	a7,0x20
     aa8:	ffff8937          	lui	s2,0xffff8
     aac:	fff90913          	addi	s2,s2,-1 # ffff7fff <fromhost+0xffff59ff>
     ab0:	ff2884e3          	beq	a7,s2,a98 <rvtest_code_begin+0x920>
     ab4:	000121b7          	lui	gp,0x12
     ab8:	3ab18193          	addi	gp,gp,939 # 123ab <fromhost+0xfdab>
     abc:	0030a423          	sw	gp,8(ra)
     ac0:	0000d1b7          	lui	gp,0xd
     ac4:	ccc18193          	addi	gp,gp,-820 # cccc <fromhost+0xa6cc>
     ac8:	00040937          	lui	s2,0x40
     acc:	ffffc9b7          	lui	s3,0xffffc
     ad0:	fff98993          	addi	s3,s3,-1 # ffffbfff <fromhost+0xffff99ff>
     ad4:	01390663          	beq	s2,s3,ae0 <rvtest_code_begin+0x968>
     ad8:	000121b7          	lui	gp,0x12
     adc:	3ab18193          	addi	gp,gp,939 # 123ab <fromhost+0xfdab>
     ae0:	0030a623          	sw	gp,12(ra)
     ae4:	0000d1b7          	lui	gp,0xd
     ae8:	ccc18193          	addi	gp,gp,-820 # cccc <fromhost+0xa6cc>
     aec:	000809b7          	lui	s3,0x80
     af0:	ffffea37          	lui	s4,0xffffe
     af4:	fffa0a13          	addi	s4,s4,-1 # ffffdfff <fromhost+0xffffb9ff>
     af8:	01498663          	beq	s3,s4,b04 <rvtest_code_begin+0x98c>
     afc:	000121b7          	lui	gp,0x12
     b00:	3ab18193          	addi	gp,gp,939 # 123ab <fromhost+0xfdab>
     b04:	0030a823          	sw	gp,16(ra)
     b08:	00001097          	auipc	ra,0x1
     b0c:	5f808093          	addi	ra,ra,1528 # 2100 <signature_13_0>
     b10:	0000d1b7          	lui	gp,0xd
     b14:	ccc18193          	addi	gp,gp,-820 # cccc <fromhost+0xa6cc>
     b18:	00100a37          	lui	s4,0x100
     b1c:	fffffab7          	lui	s5,0xfffff
     b20:	fffa8a93          	addi	s5,s5,-1 # ffffefff <fromhost+0xffffc9ff>
     b24:	015a0663          	beq	s4,s5,b30 <rvtest_code_begin+0x9b8>
     b28:	000121b7          	lui	gp,0x12
     b2c:	3ab18193          	addi	gp,gp,939 # 123ab <fromhost+0xfdab>
     b30:	0030a023          	sw	gp,0(ra)
     b34:	0000d1b7          	lui	gp,0xd
     b38:	ccc18193          	addi	gp,gp,-820 # cccc <fromhost+0xa6cc>
     b3c:	00200ab7          	lui	s5,0x200
     b40:	fffffb37          	lui	s6,0xfffff
     b44:	7ffb0b13          	addi	s6,s6,2047 # fffff7ff <fromhost+0xffffd1ff>
     b48:	016a8663          	beq	s5,s6,b54 <rvtest_code_begin+0x9dc>
     b4c:	000121b7          	lui	gp,0x12
     b50:	3ab18193          	addi	gp,gp,939 # 123ab <fromhost+0xfdab>
     b54:	0030a223          	sw	gp,4(ra)
     b58:	0080006f          	j	b60 <rvtest_code_begin+0x9e8>
     b5c:	0200006f          	j	b7c <rvtest_code_begin+0xa04>
     b60:	0000d1b7          	lui	gp,0xd
     b64:	ccc18193          	addi	gp,gp,-820 # cccc <fromhost+0xa6cc>
     b68:	00400b37          	lui	s6,0x400
     b6c:	bff00b93          	li	s7,-1025
     b70:	ff7b06e3          	beq	s6,s7,b5c <rvtest_code_begin+0x9e4>
     b74:	000121b7          	lui	gp,0x12
     b78:	3ab18193          	addi	gp,gp,939 # 123ab <fromhost+0xfdab>
     b7c:	0030a423          	sw	gp,8(ra)
     b80:	0000d1b7          	lui	gp,0xd
     b84:	ccc18193          	addi	gp,gp,-820 # cccc <fromhost+0xa6cc>
     b88:	00800bb7          	lui	s7,0x800
     b8c:	dff00c13          	li	s8,-513
     b90:	018b8663          	beq	s7,s8,b9c <rvtest_code_begin+0xa24>
     b94:	000121b7          	lui	gp,0x12
     b98:	3ab18193          	addi	gp,gp,939 # 123ab <fromhost+0xfdab>
     b9c:	0030a623          	sw	gp,12(ra)
     ba0:	0000d1b7          	lui	gp,0xd
     ba4:	ccc18193          	addi	gp,gp,-820 # cccc <fromhost+0xa6cc>
     ba8:	01000c37          	lui	s8,0x1000
     bac:	eff00c93          	li	s9,-257
     bb0:	019c0663          	beq	s8,s9,bbc <rvtest_code_begin+0xa44>
     bb4:	000121b7          	lui	gp,0x12
     bb8:	3ab18193          	addi	gp,gp,939 # 123ab <fromhost+0xfdab>
     bbc:	0030a823          	sw	gp,16(ra)
     bc0:	00001097          	auipc	ra,0x1
     bc4:	55408093          	addi	ra,ra,1364 # 2114 <signature_14_0>
     bc8:	0000d1b7          	lui	gp,0xd
     bcc:	ccc18193          	addi	gp,gp,-820 # cccc <fromhost+0xa6cc>
     bd0:	02000cb7          	lui	s9,0x2000
     bd4:	f7f00d13          	li	s10,-129
     bd8:	01ac8663          	beq	s9,s10,be4 <rvtest_code_begin+0xa6c>
     bdc:	000121b7          	lui	gp,0x12
     be0:	3ab18193          	addi	gp,gp,939 # 123ab <fromhost+0xfdab>
     be4:	0030a023          	sw	gp,0(ra)
     be8:	0000d1b7          	lui	gp,0xd
     bec:	ccc18193          	addi	gp,gp,-820 # cccc <fromhost+0xa6cc>
     bf0:	04000d37          	lui	s10,0x4000
     bf4:	fbf00d93          	li	s11,-65
     bf8:	01bd0663          	beq	s10,s11,c04 <rvtest_code_begin+0xa8c>
     bfc:	000121b7          	lui	gp,0x12
     c00:	3ab18193          	addi	gp,gp,939 # 123ab <fromhost+0xfdab>
     c04:	0030a223          	sw	gp,4(ra)
     c08:	0080006f          	j	c10 <rvtest_code_begin+0xa98>
     c0c:	0200006f          	j	c2c <rvtest_code_begin+0xab4>
     c10:	0000d1b7          	lui	gp,0xd
     c14:	ccc18193          	addi	gp,gp,-820 # cccc <fromhost+0xa6cc>
     c18:	08000db7          	lui	s11,0x8000
     c1c:	fdf00e13          	li	t3,-33
     c20:	ffcd86e3          	beq	s11,t3,c0c <rvtest_code_begin+0xa94>
     c24:	000121b7          	lui	gp,0x12
     c28:	3ab18193          	addi	gp,gp,939 # 123ab <fromhost+0xfdab>
     c2c:	0030a423          	sw	gp,8(ra)
     c30:	0000d1b7          	lui	gp,0xd
     c34:	ccc18193          	addi	gp,gp,-820 # cccc <fromhost+0xa6cc>
     c38:	10000e37          	lui	t3,0x10000
     c3c:	fef00e93          	li	t4,-17
     c40:	01de0663          	beq	t3,t4,c4c <rvtest_code_begin+0xad4>
     c44:	000121b7          	lui	gp,0x12
     c48:	3ab18193          	addi	gp,gp,939 # 123ab <fromhost+0xfdab>
     c4c:	0030a623          	sw	gp,12(ra)
     c50:	0000d1b7          	lui	gp,0xd
     c54:	ccc18193          	addi	gp,gp,-820 # cccc <fromhost+0xa6cc>
     c58:	20000eb7          	lui	t4,0x20000
     c5c:	ff700f13          	li	t5,-9
     c60:	01ee8663          	beq	t4,t5,c6c <rvtest_code_begin+0xaf4>
     c64:	000121b7          	lui	gp,0x12
     c68:	3ab18193          	addi	gp,gp,939 # 123ab <fromhost+0xfdab>
     c6c:	0030a823          	sw	gp,16(ra)
     c70:	00001217          	auipc	tp,0x1
     c74:	4b820213          	addi	tp,tp,1208 # 2128 <signature_15_0>
     c78:	0000d337          	lui	t1,0xd
     c7c:	ccc30313          	addi	t1,t1,-820 # cccc <fromhost+0xa6cc>
     c80:	40000f37          	lui	t5,0x40000
     c84:	ffb00f93          	li	t6,-5
     c88:	01ff0663          	beq	t5,t6,c94 <rvtest_code_begin+0xb1c>
     c8c:	00012337          	lui	t1,0x12
     c90:	3ab30313          	addi	t1,t1,939 # 123ab <fromhost+0xfdab>
     c94:	00622023          	sw	t1,0(tp) # 0 <rvtest_entry_point>
     c98:	0000d337          	lui	t1,0xd
     c9c:	ccc30313          	addi	t1,t1,-820 # cccc <fromhost+0xa6cc>
     ca0:	80000fb7          	lui	t6,0x80000
     ca4:	ffd00093          	li	ra,-3
     ca8:	001f8663          	beq	t6,ra,cb4 <rvtest_code_begin+0xb3c>
     cac:	00012337          	lui	t1,0x12
     cb0:	3ab30313          	addi	t1,t1,939 # 123ab <fromhost+0xfdab>
     cb4:	00622223          	sw	t1,4(tp) # 4 <trap_vector>
     cb8:	0080006f          	j	cc0 <rvtest_code_begin+0xb48>
     cbc:	0200006f          	j	cdc <rvtest_code_begin+0xb64>
     cc0:	0000d337          	lui	t1,0xd
     cc4:	ccc30313          	addi	t1,t1,-820 # cccc <fromhost+0xa6cc>
     cc8:	ffe00093          	li	ra,-2
     ccc:	ffe00113          	li	sp,-2
     cd0:	fe2086e3          	beq	ra,sp,cbc <rvtest_code_begin+0xb44>
     cd4:	00012337          	lui	t1,0x12
     cd8:	3ab30313          	addi	t1,t1,939 # 123ab <fromhost+0xfdab>
     cdc:	00622423          	sw	t1,8(tp) # 8 <trap_vector+0x4>
     ce0:	0000d337          	lui	t1,0xd
     ce4:	ccc30313          	addi	t1,t1,-820 # cccc <fromhost+0xa6cc>
     ce8:	ffd00093          	li	ra,-3
     cec:	80000137          	lui	sp,0x80000
     cf0:	00208663          	beq	ra,sp,cfc <rvtest_code_begin+0xb84>
     cf4:	00012337          	lui	t1,0x12
     cf8:	3ab30313          	addi	t1,t1,939 # 123ab <fromhost+0xfdab>
     cfc:	00622623          	sw	t1,12(tp) # c <trap_vector+0x8>
     d00:	0000d337          	lui	t1,0xd
     d04:	ccc30313          	addi	t1,t1,-820 # cccc <fromhost+0xa6cc>
     d08:	ffb00113          	li	sp,-5
     d0c:	400001b7          	lui	gp,0x40000
     d10:	00310663          	beq	sp,gp,d1c <rvtest_code_begin+0xba4>
     d14:	00012337          	lui	t1,0x12
     d18:	3ab30313          	addi	t1,t1,939 # 123ab <fromhost+0xfdab>
     d1c:	00622823          	sw	t1,16(tp) # 10 <trap_vector+0xc>
     d20:	00001097          	auipc	ra,0x1
     d24:	41c08093          	addi	ra,ra,1052 # 213c <signature_16_0>
     d28:	0000d4b7          	lui	s1,0xd
     d2c:	ccc48493          	addi	s1,s1,-820 # cccc <fromhost+0xa6cc>
     d30:	ff700193          	li	gp,-9
     d34:	20000237          	lui	tp,0x20000
     d38:	00418663          	beq	gp,tp,d44 <rvtest_code_begin+0xbcc>
     d3c:	000124b7          	lui	s1,0x12
     d40:	3ab48493          	addi	s1,s1,939 # 123ab <fromhost+0xfdab>
     d44:	0090a023          	sw	s1,0(ra)
     d48:	0000d4b7          	lui	s1,0xd
     d4c:	ccc48493          	addi	s1,s1,-820 # cccc <fromhost+0xa6cc>
     d50:	fef00213          	li	tp,-17
     d54:	100002b7          	lui	t0,0x10000
     d58:	00520663          	beq	tp,t0,d64 <rvtest_code_begin+0xbec>
     d5c:	000124b7          	lui	s1,0x12
     d60:	3ab48493          	addi	s1,s1,939 # 123ab <fromhost+0xfdab>
     d64:	0090a223          	sw	s1,4(ra)
     d68:	0080006f          	j	d70 <rvtest_code_begin+0xbf8>
     d6c:	0200006f          	j	d8c <rvtest_code_begin+0xc14>
     d70:	0000d4b7          	lui	s1,0xd
     d74:	ccc48493          	addi	s1,s1,-820 # cccc <fromhost+0xa6cc>
     d78:	fdf00293          	li	t0,-33
     d7c:	08000337          	lui	t1,0x8000
     d80:	fe6286e3          	beq	t0,t1,d6c <rvtest_code_begin+0xbf4>
     d84:	000124b7          	lui	s1,0x12
     d88:	3ab48493          	addi	s1,s1,939 # 123ab <fromhost+0xfdab>
     d8c:	0090a423          	sw	s1,8(ra)
     d90:	0000d4b7          	lui	s1,0xd
     d94:	ccc48493          	addi	s1,s1,-820 # cccc <fromhost+0xa6cc>
     d98:	fbf00313          	li	t1,-65
     d9c:	040003b7          	lui	t2,0x4000
     da0:	00730663          	beq	t1,t2,dac <rvtest_code_begin+0xc34>
     da4:	000124b7          	lui	s1,0x12
     da8:	3ab48493          	addi	s1,s1,939 # 123ab <fromhost+0xfdab>
     dac:	0090a623          	sw	s1,12(ra)
     db0:	0000d4b7          	lui	s1,0xd
     db4:	ccc48493          	addi	s1,s1,-820 # cccc <fromhost+0xa6cc>
     db8:	f7f00393          	li	t2,-129
     dbc:	02000437          	lui	s0,0x2000
     dc0:	00838663          	beq	t2,s0,dcc <rvtest_code_begin+0xc54>
     dc4:	000124b7          	lui	s1,0x12
     dc8:	3ab48493          	addi	s1,s1,939 # 123ab <fromhost+0xfdab>
     dcc:	0090a823          	sw	s1,16(ra)
     dd0:	00001097          	auipc	ra,0x1
     dd4:	38008093          	addi	ra,ra,896 # 2150 <signature_17_0>
     dd8:	0000d1b7          	lui	gp,0xd
     ddc:	ccc18193          	addi	gp,gp,-820 # cccc <fromhost+0xa6cc>
     de0:	eff00413          	li	s0,-257
     de4:	010004b7          	lui	s1,0x1000
     de8:	00940663          	beq	s0,s1,df4 <rvtest_code_begin+0xc7c>
     dec:	000121b7          	lui	gp,0x12
     df0:	3ab18193          	addi	gp,gp,939 # 123ab <fromhost+0xfdab>
     df4:	0030a023          	sw	gp,0(ra)
     df8:	0000d1b7          	lui	gp,0xd
     dfc:	ccc18193          	addi	gp,gp,-820 # cccc <fromhost+0xa6cc>
     e00:	dff00493          	li	s1,-513
     e04:	00800537          	lui	a0,0x800
     e08:	00a48663          	beq	s1,a0,e14 <rvtest_code_begin+0xc9c>
     e0c:	000121b7          	lui	gp,0x12
     e10:	3ab18193          	addi	gp,gp,939 # 123ab <fromhost+0xfdab>
     e14:	0030a223          	sw	gp,4(ra)
     e18:	0080006f          	j	e20 <rvtest_code_begin+0xca8>
     e1c:	0200006f          	j	e3c <rvtest_code_begin+0xcc4>
     e20:	0000d1b7          	lui	gp,0xd
     e24:	ccc18193          	addi	gp,gp,-820 # cccc <fromhost+0xa6cc>
     e28:	bff00513          	li	a0,-1025
     e2c:	004005b7          	lui	a1,0x400
     e30:	feb506e3          	beq	a0,a1,e1c <rvtest_code_begin+0xca4>
     e34:	000121b7          	lui	gp,0x12
     e38:	3ab18193          	addi	gp,gp,939 # 123ab <fromhost+0xfdab>
     e3c:	0030a423          	sw	gp,8(ra)
     e40:	0000d1b7          	lui	gp,0xd
     e44:	ccc18193          	addi	gp,gp,-820 # cccc <fromhost+0xa6cc>
     e48:	fffff5b7          	lui	a1,0xfffff
     e4c:	7ff58593          	addi	a1,a1,2047 # fffff7ff <fromhost+0xffffd1ff>
     e50:	00200637          	lui	a2,0x200
     e54:	00c58663          	beq	a1,a2,e60 <rvtest_code_begin+0xce8>
     e58:	000121b7          	lui	gp,0x12
     e5c:	3ab18193          	addi	gp,gp,939 # 123ab <fromhost+0xfdab>
     e60:	0030a623          	sw	gp,12(ra)
     e64:	0000d1b7          	lui	gp,0xd
     e68:	ccc18193          	addi	gp,gp,-820 # cccc <fromhost+0xa6cc>
     e6c:	fffff637          	lui	a2,0xfffff
     e70:	fff60613          	addi	a2,a2,-1 # ffffefff <fromhost+0xffffc9ff>
     e74:	001006b7          	lui	a3,0x100
     e78:	00d60663          	beq	a2,a3,e84 <rvtest_code_begin+0xd0c>
     e7c:	000121b7          	lui	gp,0x12
     e80:	3ab18193          	addi	gp,gp,939 # 123ab <fromhost+0xfdab>
     e84:	0030a823          	sw	gp,16(ra)
     e88:	00001097          	auipc	ra,0x1
     e8c:	2dc08093          	addi	ra,ra,732 # 2164 <signature_18_0>
     e90:	0000d1b7          	lui	gp,0xd
     e94:	ccc18193          	addi	gp,gp,-820 # cccc <fromhost+0xa6cc>
     e98:	ffffe6b7          	lui	a3,0xffffe
     e9c:	fff68693          	addi	a3,a3,-1 # ffffdfff <fromhost+0xffffb9ff>
     ea0:	00080737          	lui	a4,0x80
     ea4:	00e68663          	beq	a3,a4,eb0 <rvtest_code_begin+0xd38>
     ea8:	000121b7          	lui	gp,0x12
     eac:	3ab18193          	addi	gp,gp,939 # 123ab <fromhost+0xfdab>
     eb0:	0030a023          	sw	gp,0(ra)
     eb4:	0000d1b7          	lui	gp,0xd
     eb8:	ccc18193          	addi	gp,gp,-820 # cccc <fromhost+0xa6cc>
     ebc:	ffffc737          	lui	a4,0xffffc
     ec0:	fff70713          	addi	a4,a4,-1 # ffffbfff <fromhost+0xffff99ff>
     ec4:	000407b7          	lui	a5,0x40
     ec8:	00f70663          	beq	a4,a5,ed4 <rvtest_code_begin+0xd5c>
     ecc:	000121b7          	lui	gp,0x12
     ed0:	3ab18193          	addi	gp,gp,939 # 123ab <fromhost+0xfdab>
     ed4:	0030a223          	sw	gp,4(ra)
     ed8:	0080006f          	j	ee0 <rvtest_code_begin+0xd68>
     edc:	0240006f          	j	f00 <rvtest_code_begin+0xd88>
     ee0:	0000d1b7          	lui	gp,0xd
     ee4:	ccc18193          	addi	gp,gp,-820 # cccc <fromhost+0xa6cc>
     ee8:	ffff87b7          	lui	a5,0xffff8
     eec:	fff78793          	addi	a5,a5,-1 # ffff7fff <fromhost+0xffff59ff>
     ef0:	00020837          	lui	a6,0x20
     ef4:	ff0784e3          	beq	a5,a6,edc <rvtest_code_begin+0xd64>
     ef8:	000121b7          	lui	gp,0x12
     efc:	3ab18193          	addi	gp,gp,939 # 123ab <fromhost+0xfdab>
     f00:	0030a423          	sw	gp,8(ra)
     f04:	0000d1b7          	lui	gp,0xd
     f08:	ccc18193          	addi	gp,gp,-820 # cccc <fromhost+0xa6cc>
     f0c:	ffff0837          	lui	a6,0xffff0
     f10:	fff80813          	addi	a6,a6,-1 # fffeffff <fromhost+0xfffed9ff>
     f14:	000108b7          	lui	a7,0x10
     f18:	01180663          	beq	a6,a7,f24 <rvtest_code_begin+0xdac>
     f1c:	000121b7          	lui	gp,0x12
     f20:	3ab18193          	addi	gp,gp,939 # 123ab <fromhost+0xfdab>
     f24:	0030a623          	sw	gp,12(ra)
     f28:	0000d1b7          	lui	gp,0xd
     f2c:	ccc18193          	addi	gp,gp,-820 # cccc <fromhost+0xa6cc>
     f30:	fffe08b7          	lui	a7,0xfffe0
     f34:	fff88893          	addi	a7,a7,-1 # fffdffff <fromhost+0xfffdd9ff>
     f38:	00008937          	lui	s2,0x8
     f3c:	01288663          	beq	a7,s2,f48 <rvtest_code_begin+0xdd0>
     f40:	000121b7          	lui	gp,0x12
     f44:	3ab18193          	addi	gp,gp,939 # 123ab <fromhost+0xfdab>
     f48:	0030a823          	sw	gp,16(ra)
     f4c:	00001097          	auipc	ra,0x1
     f50:	22c08093          	addi	ra,ra,556 # 2178 <signature_19_0>
     f54:	0000d1b7          	lui	gp,0xd
     f58:	ccc18193          	addi	gp,gp,-820 # cccc <fromhost+0xa6cc>
     f5c:	fffc0937          	lui	s2,0xfffc0
     f60:	fff90913          	addi	s2,s2,-1 # fffbffff <fromhost+0xfffbd9ff>
     f64:	000049b7          	lui	s3,0x4
     f68:	01390663          	beq	s2,s3,f74 <rvtest_code_begin+0xdfc>
     f6c:	000121b7          	lui	gp,0x12
     f70:	3ab18193          	addi	gp,gp,939 # 123ab <fromhost+0xfdab>
     f74:	0030a023          	sw	gp,0(ra)
     f78:	0000d1b7          	lui	gp,0xd
     f7c:	ccc18193          	addi	gp,gp,-820 # cccc <fromhost+0xa6cc>
     f80:	fff809b7          	lui	s3,0xfff80
     f84:	fff98993          	addi	s3,s3,-1 # fff7ffff <fromhost+0xfff7d9ff>
     f88:	00002a37          	lui	s4,0x2
     f8c:	01498663          	beq	s3,s4,f98 <rvtest_code_begin+0xe20>
     f90:	000121b7          	lui	gp,0x12
     f94:	3ab18193          	addi	gp,gp,939 # 123ab <fromhost+0xfdab>
     f98:	0030a223          	sw	gp,4(ra)
     f9c:	0080006f          	j	fa4 <rvtest_code_begin+0xe2c>
     fa0:	0240006f          	j	fc4 <rvtest_code_begin+0xe4c>
     fa4:	0000d1b7          	lui	gp,0xd
     fa8:	ccc18193          	addi	gp,gp,-820 # cccc <fromhost+0xa6cc>
     fac:	fff00a37          	lui	s4,0xfff00
     fb0:	fffa0a13          	addi	s4,s4,-1 # ffefffff <fromhost+0xffefd9ff>
     fb4:	00001ab7          	lui	s5,0x1
     fb8:	ff5a04e3          	beq	s4,s5,fa0 <rvtest_code_begin+0xe28>
     fbc:	000121b7          	lui	gp,0x12
     fc0:	3ab18193          	addi	gp,gp,939 # 123ab <fromhost+0xfdab>
     fc4:	0030a423          	sw	gp,8(ra)
     fc8:	0000d1b7          	lui	gp,0xd
     fcc:	ccc18193          	addi	gp,gp,-820 # cccc <fromhost+0xa6cc>
     fd0:	ffe00ab7          	lui	s5,0xffe00
     fd4:	fffa8a93          	addi	s5,s5,-1 # ffdfffff <fromhost+0xffdfd9ff>
     fd8:	00001b37          	lui	s6,0x1
     fdc:	800b0b13          	addi	s6,s6,-2048 # 800 <rvtest_code_begin+0x688>
     fe0:	016a8663          	beq	s5,s6,fec <rvtest_code_begin+0xe74>
     fe4:	000121b7          	lui	gp,0x12
     fe8:	3ab18193          	addi	gp,gp,939 # 123ab <fromhost+0xfdab>
     fec:	0030a623          	sw	gp,12(ra)
     ff0:	0000d1b7          	lui	gp,0xd
     ff4:	ccc18193          	addi	gp,gp,-820 # cccc <fromhost+0xa6cc>
     ff8:	ffc00b37          	lui	s6,0xffc00
     ffc:	fffb0b13          	addi	s6,s6,-1 # ffbfffff <fromhost+0xffbfd9ff>
    1000:	40000b93          	li	s7,1024
    1004:	017b0663          	beq	s6,s7,1010 <rvtest_code_begin+0xe98>
    1008:	000121b7          	lui	gp,0x12
    100c:	3ab18193          	addi	gp,gp,939 # 123ab <fromhost+0xfdab>
    1010:	0030a823          	sw	gp,16(ra)
    1014:	00001097          	auipc	ra,0x1
    1018:	17808093          	addi	ra,ra,376 # 218c <signature_20_0>
    101c:	0000d1b7          	lui	gp,0xd
    1020:	ccc18193          	addi	gp,gp,-820 # cccc <fromhost+0xa6cc>
    1024:	ff800bb7          	lui	s7,0xff800
    1028:	fffb8b93          	addi	s7,s7,-1 # ff7fffff <fromhost+0xff7fd9ff>
    102c:	20000c13          	li	s8,512
    1030:	018b8663          	beq	s7,s8,103c <rvtest_code_begin+0xec4>
    1034:	000121b7          	lui	gp,0x12
    1038:	3ab18193          	addi	gp,gp,939 # 123ab <fromhost+0xfdab>
    103c:	0030a023          	sw	gp,0(ra)
    1040:	0000d1b7          	lui	gp,0xd
    1044:	ccc18193          	addi	gp,gp,-820 # cccc <fromhost+0xa6cc>
    1048:	ff000c37          	lui	s8,0xff000
    104c:	fffc0c13          	addi	s8,s8,-1 # feffffff <fromhost+0xfeffd9ff>
    1050:	10000c93          	li	s9,256
    1054:	019c0663          	beq	s8,s9,1060 <rvtest_code_begin+0xee8>
    1058:	000121b7          	lui	gp,0x12
    105c:	3ab18193          	addi	gp,gp,939 # 123ab <fromhost+0xfdab>
    1060:	0030a223          	sw	gp,4(ra)
    1064:	0080006f          	j	106c <rvtest_code_begin+0xef4>
    1068:	0240006f          	j	108c <rvtest_code_begin+0xf14>
    106c:	0000d1b7          	lui	gp,0xd
    1070:	ccc18193          	addi	gp,gp,-820 # cccc <fromhost+0xa6cc>
    1074:	fe000cb7          	lui	s9,0xfe000
    1078:	fffc8c93          	addi	s9,s9,-1 # fdffffff <fromhost+0xfdffd9ff>
    107c:	08000d13          	li	s10,128
    1080:	ffac84e3          	beq	s9,s10,1068 <rvtest_code_begin+0xef0>
    1084:	000121b7          	lui	gp,0x12
    1088:	3ab18193          	addi	gp,gp,939 # 123ab <fromhost+0xfdab>
    108c:	0030a423          	sw	gp,8(ra)
    1090:	0000d1b7          	lui	gp,0xd
    1094:	ccc18193          	addi	gp,gp,-820 # cccc <fromhost+0xa6cc>
    1098:	fc000d37          	lui	s10,0xfc000
    109c:	fffd0d13          	addi	s10,s10,-1 # fbffffff <fromhost+0xfbffd9ff>
    10a0:	04000d93          	li	s11,64
    10a4:	01bd0663          	beq	s10,s11,10b0 <rvtest_code_begin+0xf38>
    10a8:	000121b7          	lui	gp,0x12
    10ac:	3ab18193          	addi	gp,gp,939 # 123ab <fromhost+0xfdab>
    10b0:	0030a623          	sw	gp,12(ra)
    10b4:	0000d1b7          	lui	gp,0xd
    10b8:	ccc18193          	addi	gp,gp,-820 # cccc <fromhost+0xa6cc>
    10bc:	f8000db7          	lui	s11,0xf8000
    10c0:	fffd8d93          	addi	s11,s11,-1 # f7ffffff <fromhost+0xf7ffd9ff>
    10c4:	02000e13          	li	t3,32
    10c8:	01cd8663          	beq	s11,t3,10d4 <rvtest_code_begin+0xf5c>
    10cc:	000121b7          	lui	gp,0x12
    10d0:	3ab18193          	addi	gp,gp,939 # 123ab <fromhost+0xfdab>
    10d4:	0030a823          	sw	gp,16(ra)
    10d8:	00001197          	auipc	gp,0x1
    10dc:	0c818193          	addi	gp,gp,200 # 21a0 <signature_21_0>
    10e0:	0000d2b7          	lui	t0,0xd
    10e4:	ccc28293          	addi	t0,t0,-820 # cccc <fromhost+0xa6cc>
    10e8:	f0000e37          	lui	t3,0xf0000
    10ec:	fffe0e13          	addi	t3,t3,-1 # efffffff <fromhost+0xefffd9ff>
    10f0:	01000e93          	li	t4,16
    10f4:	01de0663          	beq	t3,t4,1100 <rvtest_code_begin+0xf88>
    10f8:	000122b7          	lui	t0,0x12
    10fc:	3ab28293          	addi	t0,t0,939 # 123ab <fromhost+0xfdab>
    1100:	0051a023          	sw	t0,0(gp)
    1104:	0000d2b7          	lui	t0,0xd
    1108:	ccc28293          	addi	t0,t0,-820 # cccc <fromhost+0xa6cc>
    110c:	e0000eb7          	lui	t4,0xe0000
    1110:	fffe8e93          	addi	t4,t4,-1 # dfffffff <fromhost+0xdfffd9ff>
    1114:	00800f13          	li	t5,8
    1118:	01ee8663          	beq	t4,t5,1124 <rvtest_code_begin+0xfac>
    111c:	000122b7          	lui	t0,0x12
    1120:	3ab28293          	addi	t0,t0,939 # 123ab <fromhost+0xfdab>
    1124:	0051a223          	sw	t0,4(gp)
    1128:	0080006f          	j	1130 <rvtest_code_begin+0xfb8>
    112c:	0240006f          	j	1150 <rvtest_code_begin+0xfd8>
    1130:	0000d2b7          	lui	t0,0xd
    1134:	ccc28293          	addi	t0,t0,-820 # cccc <fromhost+0xa6cc>
    1138:	c0000f37          	lui	t5,0xc0000
    113c:	ffff0f13          	addi	t5,t5,-1 # bfffffff <fromhost+0xbfffd9ff>
    1140:	00400f93          	li	t6,4
    1144:	ffff04e3          	beq	t5,t6,112c <rvtest_code_begin+0xfb4>
    1148:	000122b7          	lui	t0,0x12
    114c:	3ab28293          	addi	t0,t0,939 # 123ab <fromhost+0xfdab>
    1150:	0051a423          	sw	t0,8(gp)
    1154:	0000d2b7          	lui	t0,0xd
    1158:	ccc28293          	addi	t0,t0,-820 # cccc <fromhost+0xa6cc>
    115c:	80000fb7          	lui	t6,0x80000
    1160:	ffff8f93          	addi	t6,t6,-1 # 7fffffff <fromhost+0x7fffd9ff>
    1164:	00200093          	li	ra,2
    1168:	001f8663          	beq	t6,ra,1174 <rvtest_code_begin+0xffc>
    116c:	000122b7          	lui	t0,0x12
    1170:	3ab28293          	addi	t0,t0,939 # 123ab <fromhost+0xfdab>
    1174:	0051a623          	sw	t0,12(gp)
    1178:	0000d2b7          	lui	t0,0xd
    117c:	ccc28293          	addi	t0,t0,-820 # cccc <fromhost+0xa6cc>
    1180:	00100093          	li	ra,1
    1184:	00000113          	li	sp,0
    1188:	00208663          	beq	ra,sp,1194 <rvtest_code_begin+0x101c>
    118c:	000122b7          	lui	t0,0x12
    1190:	3ab28293          	addi	t0,t0,939 # 123ab <fromhost+0xfdab>
    1194:	0051a823          	sw	t0,16(gp)
    1198:	00001397          	auipc	t2,0x1
    119c:	01c38393          	addi	t2,t2,28 # 21b4 <signature_22_0>
    11a0:	0000d4b7          	lui	s1,0xd
    11a4:	ccc48493          	addi	s1,s1,-820 # cccc <fromhost+0xa6cc>
    11a8:	00200093          	li	ra,2
    11ac:	00000113          	li	sp,0
    11b0:	00208663          	beq	ra,sp,11bc <rvtest_code_begin+0x1044>
    11b4:	000124b7          	lui	s1,0x12
    11b8:	3ab48493          	addi	s1,s1,939 # 123ab <fromhost+0xfdab>
    11bc:	0093a023          	sw	s1,0(t2)
    11c0:	0000d4b7          	lui	s1,0xd
    11c4:	ccc48493          	addi	s1,s1,-820 # cccc <fromhost+0xa6cc>
    11c8:	00400113          	li	sp,4
    11cc:	00000193          	li	gp,0
    11d0:	00310663          	beq	sp,gp,11dc <rvtest_code_begin+0x1064>
    11d4:	000124b7          	lui	s1,0x12
    11d8:	3ab48493          	addi	s1,s1,939 # 123ab <fromhost+0xfdab>
    11dc:	0093a223          	sw	s1,4(t2)
    11e0:	0080006f          	j	11e8 <rvtest_code_begin+0x1070>
    11e4:	0200006f          	j	1204 <rvtest_code_begin+0x108c>
    11e8:	0000d4b7          	lui	s1,0xd
    11ec:	ccc48493          	addi	s1,s1,-820 # cccc <fromhost+0xa6cc>
    11f0:	00800193          	li	gp,8
    11f4:	00000213          	li	tp,0
    11f8:	fe4186e3          	beq	gp,tp,11e4 <rvtest_code_begin+0x106c>
    11fc:	000124b7          	lui	s1,0x12
    1200:	3ab48493          	addi	s1,s1,939 # 123ab <fromhost+0xfdab>
    1204:	0093a423          	sw	s1,8(t2)
    1208:	0000d4b7          	lui	s1,0xd
    120c:	ccc48493          	addi	s1,s1,-820 # cccc <fromhost+0xa6cc>
    1210:	01000213          	li	tp,16
    1214:	00000293          	li	t0,0
    1218:	00520663          	beq	tp,t0,1224 <rvtest_code_begin+0x10ac>
    121c:	000124b7          	lui	s1,0x12
    1220:	3ab48493          	addi	s1,s1,939 # 123ab <fromhost+0xfdab>
    1224:	0093a623          	sw	s1,12(t2)
    1228:	0000d4b7          	lui	s1,0xd
    122c:	ccc48493          	addi	s1,s1,-820 # cccc <fromhost+0xa6cc>
    1230:	02000293          	li	t0,32
    1234:	00000313          	li	t1,0
    1238:	00628663          	beq	t0,t1,1244 <rvtest_code_begin+0x10cc>
    123c:	000124b7          	lui	s1,0x12
    1240:	3ab48493          	addi	s1,s1,939 # 123ab <fromhost+0xfdab>
    1244:	0093a823          	sw	s1,16(t2)
    1248:	00001097          	auipc	ra,0x1
    124c:	f8008093          	addi	ra,ra,-128 # 21c8 <signature_23_0>
    1250:	0000d1b7          	lui	gp,0xd
    1254:	ccc18193          	addi	gp,gp,-820 # cccc <fromhost+0xa6cc>
    1258:	04000313          	li	t1,64
    125c:	00000393          	li	t2,0
    1260:	00730663          	beq	t1,t2,126c <rvtest_code_begin+0x10f4>
    1264:	000121b7          	lui	gp,0x12
    1268:	3ab18193          	addi	gp,gp,939 # 123ab <fromhost+0xfdab>
    126c:	0030a023          	sw	gp,0(ra)
    1270:	0000d1b7          	lui	gp,0xd
    1274:	ccc18193          	addi	gp,gp,-820 # cccc <fromhost+0xa6cc>
    1278:	08000393          	li	t2,128
    127c:	00000413          	li	s0,0
    1280:	00838663          	beq	t2,s0,128c <rvtest_code_begin+0x1114>
    1284:	000121b7          	lui	gp,0x12
    1288:	3ab18193          	addi	gp,gp,939 # 123ab <fromhost+0xfdab>
    128c:	0030a223          	sw	gp,4(ra)
    1290:	0080006f          	j	1298 <rvtest_code_begin+0x1120>
    1294:	0200006f          	j	12b4 <rvtest_code_begin+0x113c>
    1298:	0000d1b7          	lui	gp,0xd
    129c:	ccc18193          	addi	gp,gp,-820 # cccc <fromhost+0xa6cc>
    12a0:	10000413          	li	s0,256
    12a4:	00000493          	li	s1,0
    12a8:	fe9406e3          	beq	s0,s1,1294 <rvtest_code_begin+0x111c>
    12ac:	000121b7          	lui	gp,0x12
    12b0:	3ab18193          	addi	gp,gp,939 # 123ab <fromhost+0xfdab>
    12b4:	0030a423          	sw	gp,8(ra)
    12b8:	0000d1b7          	lui	gp,0xd
    12bc:	ccc18193          	addi	gp,gp,-820 # cccc <fromhost+0xa6cc>
    12c0:	20000493          	li	s1,512
    12c4:	00000513          	li	a0,0
    12c8:	00a48663          	beq	s1,a0,12d4 <rvtest_code_begin+0x115c>
    12cc:	000121b7          	lui	gp,0x12
    12d0:	3ab18193          	addi	gp,gp,939 # 123ab <fromhost+0xfdab>
    12d4:	0030a623          	sw	gp,12(ra)
    12d8:	0000d1b7          	lui	gp,0xd
    12dc:	ccc18193          	addi	gp,gp,-820 # cccc <fromhost+0xa6cc>
    12e0:	40000513          	li	a0,1024
    12e4:	00000593          	li	a1,0
    12e8:	00b50663          	beq	a0,a1,12f4 <rvtest_code_begin+0x117c>
    12ec:	000121b7          	lui	gp,0x12
    12f0:	3ab18193          	addi	gp,gp,939 # 123ab <fromhost+0xfdab>
    12f4:	0030a823          	sw	gp,16(ra)
    12f8:	00001097          	auipc	ra,0x1
    12fc:	ee408093          	addi	ra,ra,-284 # 21dc <signature_24_0>
    1300:	0000d1b7          	lui	gp,0xd
    1304:	ccc18193          	addi	gp,gp,-820 # cccc <fromhost+0xa6cc>
    1308:	000015b7          	lui	a1,0x1
    130c:	80058593          	addi	a1,a1,-2048 # 800 <rvtest_code_begin+0x688>
    1310:	00000613          	li	a2,0
    1314:	00c58663          	beq	a1,a2,1320 <rvtest_code_begin+0x11a8>
    1318:	000121b7          	lui	gp,0x12
    131c:	3ab18193          	addi	gp,gp,939 # 123ab <fromhost+0xfdab>
    1320:	0030a023          	sw	gp,0(ra)
    1324:	0000d1b7          	lui	gp,0xd
    1328:	ccc18193          	addi	gp,gp,-820 # cccc <fromhost+0xa6cc>
    132c:	00001637          	lui	a2,0x1
    1330:	00000693          	li	a3,0
    1334:	00d60663          	beq	a2,a3,1340 <rvtest_code_begin+0x11c8>
    1338:	000121b7          	lui	gp,0x12
    133c:	3ab18193          	addi	gp,gp,939 # 123ab <fromhost+0xfdab>
    1340:	0030a223          	sw	gp,4(ra)
    1344:	0080006f          	j	134c <rvtest_code_begin+0x11d4>
    1348:	0200006f          	j	1368 <rvtest_code_begin+0x11f0>
    134c:	0000d1b7          	lui	gp,0xd
    1350:	ccc18193          	addi	gp,gp,-820 # cccc <fromhost+0xa6cc>
    1354:	000026b7          	lui	a3,0x2
    1358:	00000713          	li	a4,0
    135c:	fee686e3          	beq	a3,a4,1348 <rvtest_code_begin+0x11d0>
    1360:	000121b7          	lui	gp,0x12
    1364:	3ab18193          	addi	gp,gp,939 # 123ab <fromhost+0xfdab>
    1368:	0030a423          	sw	gp,8(ra)
    136c:	0000d1b7          	lui	gp,0xd
    1370:	ccc18193          	addi	gp,gp,-820 # cccc <fromhost+0xa6cc>
    1374:	00004737          	lui	a4,0x4
    1378:	00000793          	li	a5,0
    137c:	00f70663          	beq	a4,a5,1388 <rvtest_code_begin+0x1210>
    1380:	000121b7          	lui	gp,0x12
    1384:	3ab18193          	addi	gp,gp,939 # 123ab <fromhost+0xfdab>
    1388:	0030a623          	sw	gp,12(ra)
    138c:	0000d1b7          	lui	gp,0xd
    1390:	ccc18193          	addi	gp,gp,-820 # cccc <fromhost+0xa6cc>
    1394:	000087b7          	lui	a5,0x8
    1398:	00000813          	li	a6,0
    139c:	01078663          	beq	a5,a6,13a8 <rvtest_code_begin+0x1230>
    13a0:	000121b7          	lui	gp,0x12
    13a4:	3ab18193          	addi	gp,gp,939 # 123ab <fromhost+0xfdab>
    13a8:	0030a823          	sw	gp,16(ra)
    13ac:	00001097          	auipc	ra,0x1
    13b0:	e4408093          	addi	ra,ra,-444 # 21f0 <signature_25_0>
    13b4:	0000d1b7          	lui	gp,0xd
    13b8:	ccc18193          	addi	gp,gp,-820 # cccc <fromhost+0xa6cc>
    13bc:	00010837          	lui	a6,0x10
    13c0:	00000893          	li	a7,0
    13c4:	01180663          	beq	a6,a7,13d0 <rvtest_code_begin+0x1258>
    13c8:	000121b7          	lui	gp,0x12
    13cc:	3ab18193          	addi	gp,gp,939 # 123ab <fromhost+0xfdab>
    13d0:	0030a023          	sw	gp,0(ra)
    13d4:	0000d1b7          	lui	gp,0xd
    13d8:	ccc18193          	addi	gp,gp,-820 # cccc <fromhost+0xa6cc>
    13dc:	000208b7          	lui	a7,0x20
    13e0:	00000913          	li	s2,0
    13e4:	01288663          	beq	a7,s2,13f0 <rvtest_code_begin+0x1278>
    13e8:	000121b7          	lui	gp,0x12
    13ec:	3ab18193          	addi	gp,gp,939 # 123ab <fromhost+0xfdab>
    13f0:	0030a223          	sw	gp,4(ra)
    13f4:	0080006f          	j	13fc <rvtest_code_begin+0x1284>
    13f8:	0200006f          	j	1418 <rvtest_code_begin+0x12a0>
    13fc:	0000d1b7          	lui	gp,0xd
    1400:	ccc18193          	addi	gp,gp,-820 # cccc <fromhost+0xa6cc>
    1404:	00040937          	lui	s2,0x40
    1408:	00000993          	li	s3,0
    140c:	ff3906e3          	beq	s2,s3,13f8 <rvtest_code_begin+0x1280>
    1410:	000121b7          	lui	gp,0x12
    1414:	3ab18193          	addi	gp,gp,939 # 123ab <fromhost+0xfdab>
    1418:	0030a423          	sw	gp,8(ra)
    141c:	0000d1b7          	lui	gp,0xd
    1420:	ccc18193          	addi	gp,gp,-820 # cccc <fromhost+0xa6cc>
    1424:	000809b7          	lui	s3,0x80
    1428:	00000a13          	li	s4,0
    142c:	01498663          	beq	s3,s4,1438 <rvtest_code_begin+0x12c0>
    1430:	000121b7          	lui	gp,0x12
    1434:	3ab18193          	addi	gp,gp,939 # 123ab <fromhost+0xfdab>
    1438:	0030a623          	sw	gp,12(ra)
    143c:	0000d1b7          	lui	gp,0xd
    1440:	ccc18193          	addi	gp,gp,-820 # cccc <fromhost+0xa6cc>
    1444:	00100a37          	lui	s4,0x100
    1448:	00000a93          	li	s5,0
    144c:	015a0663          	beq	s4,s5,1458 <rvtest_code_begin+0x12e0>
    1450:	000121b7          	lui	gp,0x12
    1454:	3ab18193          	addi	gp,gp,939 # 123ab <fromhost+0xfdab>
    1458:	0030a823          	sw	gp,16(ra)
    145c:	00001097          	auipc	ra,0x1
    1460:	da808093          	addi	ra,ra,-600 # 2204 <signature_26_0>
    1464:	0000d1b7          	lui	gp,0xd
    1468:	ccc18193          	addi	gp,gp,-820 # cccc <fromhost+0xa6cc>
    146c:	00200ab7          	lui	s5,0x200
    1470:	00000b13          	li	s6,0
    1474:	016a8663          	beq	s5,s6,1480 <rvtest_code_begin+0x1308>
    1478:	000121b7          	lui	gp,0x12
    147c:	3ab18193          	addi	gp,gp,939 # 123ab <fromhost+0xfdab>
    1480:	0030a023          	sw	gp,0(ra)
    1484:	0000d1b7          	lui	gp,0xd
    1488:	ccc18193          	addi	gp,gp,-820 # cccc <fromhost+0xa6cc>
    148c:	00400b37          	lui	s6,0x400
    1490:	00000b93          	li	s7,0
    1494:	017b0663          	beq	s6,s7,14a0 <rvtest_code_begin+0x1328>
    1498:	000121b7          	lui	gp,0x12
    149c:	3ab18193          	addi	gp,gp,939 # 123ab <fromhost+0xfdab>
    14a0:	0030a223          	sw	gp,4(ra)
    14a4:	0080006f          	j	14ac <rvtest_code_begin+0x1334>
    14a8:	0200006f          	j	14c8 <rvtest_code_begin+0x1350>
    14ac:	0000d1b7          	lui	gp,0xd
    14b0:	ccc18193          	addi	gp,gp,-820 # cccc <fromhost+0xa6cc>
    14b4:	00800bb7          	lui	s7,0x800
    14b8:	00000c13          	li	s8,0
    14bc:	ff8b86e3          	beq	s7,s8,14a8 <rvtest_code_begin+0x1330>
    14c0:	000121b7          	lui	gp,0x12
    14c4:	3ab18193          	addi	gp,gp,939 # 123ab <fromhost+0xfdab>
    14c8:	0030a423          	sw	gp,8(ra)
    14cc:	0000d1b7          	lui	gp,0xd
    14d0:	ccc18193          	addi	gp,gp,-820 # cccc <fromhost+0xa6cc>
    14d4:	01000c37          	lui	s8,0x1000
    14d8:	00000c93          	li	s9,0
    14dc:	019c0663          	beq	s8,s9,14e8 <rvtest_code_begin+0x1370>
    14e0:	000121b7          	lui	gp,0x12
    14e4:	3ab18193          	addi	gp,gp,939 # 123ab <fromhost+0xfdab>
    14e8:	0030a623          	sw	gp,12(ra)
    14ec:	0000d1b7          	lui	gp,0xd
    14f0:	ccc18193          	addi	gp,gp,-820 # cccc <fromhost+0xa6cc>
    14f4:	02000cb7          	lui	s9,0x2000
    14f8:	00000d13          	li	s10,0
    14fc:	01ac8663          	beq	s9,s10,1508 <rvtest_code_begin+0x1390>
    1500:	000121b7          	lui	gp,0x12
    1504:	3ab18193          	addi	gp,gp,939 # 123ab <fromhost+0xfdab>
    1508:	0030a823          	sw	gp,16(ra)
    150c:	00001097          	auipc	ra,0x1
    1510:	d0c08093          	addi	ra,ra,-756 # 2218 <signature_27_0>
    1514:	0000d1b7          	lui	gp,0xd
    1518:	ccc18193          	addi	gp,gp,-820 # cccc <fromhost+0xa6cc>
    151c:	04000d37          	lui	s10,0x4000
    1520:	00000d93          	li	s11,0
    1524:	01bd0663          	beq	s10,s11,1530 <rvtest_code_begin+0x13b8>
    1528:	000121b7          	lui	gp,0x12
    152c:	3ab18193          	addi	gp,gp,939 # 123ab <fromhost+0xfdab>
    1530:	0030a023          	sw	gp,0(ra)
    1534:	0000d1b7          	lui	gp,0xd
    1538:	ccc18193          	addi	gp,gp,-820 # cccc <fromhost+0xa6cc>
    153c:	08000db7          	lui	s11,0x8000
    1540:	00000e13          	li	t3,0
    1544:	01cd8663          	beq	s11,t3,1550 <rvtest_code_begin+0x13d8>
    1548:	000121b7          	lui	gp,0x12
    154c:	3ab18193          	addi	gp,gp,939 # 123ab <fromhost+0xfdab>
    1550:	0030a223          	sw	gp,4(ra)
    1554:	0080006f          	j	155c <rvtest_code_begin+0x13e4>
    1558:	0200006f          	j	1578 <rvtest_code_begin+0x1400>
    155c:	0000d1b7          	lui	gp,0xd
    1560:	ccc18193          	addi	gp,gp,-820 # cccc <fromhost+0xa6cc>
    1564:	10000e37          	lui	t3,0x10000
    1568:	00000e93          	li	t4,0
    156c:	ffde06e3          	beq	t3,t4,1558 <rvtest_code_begin+0x13e0>
    1570:	000121b7          	lui	gp,0x12
    1574:	3ab18193          	addi	gp,gp,939 # 123ab <fromhost+0xfdab>
    1578:	0030a423          	sw	gp,8(ra)
    157c:	0000d1b7          	lui	gp,0xd
    1580:	ccc18193          	addi	gp,gp,-820 # cccc <fromhost+0xa6cc>
    1584:	20000eb7          	lui	t4,0x20000
    1588:	00000f13          	li	t5,0
    158c:	01ee8663          	beq	t4,t5,1598 <rvtest_code_begin+0x1420>
    1590:	000121b7          	lui	gp,0x12
    1594:	3ab18193          	addi	gp,gp,939 # 123ab <fromhost+0xfdab>
    1598:	0030a623          	sw	gp,12(ra)
    159c:	0000d1b7          	lui	gp,0xd
    15a0:	ccc18193          	addi	gp,gp,-820 # cccc <fromhost+0xa6cc>
    15a4:	40000f37          	lui	t5,0x40000
    15a8:	00000f93          	li	t6,0
    15ac:	01ff0663          	beq	t5,t6,15b8 <rvtest_code_begin+0x1440>
    15b0:	000121b7          	lui	gp,0x12
    15b4:	3ab18193          	addi	gp,gp,939 # 123ab <fromhost+0xfdab>
    15b8:	0030a823          	sw	gp,16(ra)
    15bc:	00001297          	auipc	t0,0x1
    15c0:	c7028293          	addi	t0,t0,-912 # 222c <signature_28_0>
    15c4:	0000d3b7          	lui	t2,0xd
    15c8:	ccc38393          	addi	t2,t2,-820 # cccc <fromhost+0xa6cc>
    15cc:	80000fb7          	lui	t6,0x80000
    15d0:	00000093          	li	ra,0
    15d4:	001f8663          	beq	t6,ra,15e0 <rvtest_code_begin+0x1468>
    15d8:	000123b7          	lui	t2,0x12
    15dc:	3ab38393          	addi	t2,t2,939 # 123ab <fromhost+0xfdab>
    15e0:	0072a023          	sw	t2,0(t0)
    15e4:	0000d3b7          	lui	t2,0xd
    15e8:	ccc38393          	addi	t2,t2,-820 # cccc <fromhost+0xa6cc>
    15ec:	ffe00093          	li	ra,-2
    15f0:	00000113          	li	sp,0
    15f4:	00208663          	beq	ra,sp,1600 <rvtest_code_begin+0x1488>
    15f8:	000123b7          	lui	t2,0x12
    15fc:	3ab38393          	addi	t2,t2,939 # 123ab <fromhost+0xfdab>
    1600:	0072a223          	sw	t2,4(t0)
    1604:	0080006f          	j	160c <rvtest_code_begin+0x1494>
    1608:	0200006f          	j	1628 <rvtest_code_begin+0x14b0>
    160c:	0000d3b7          	lui	t2,0xd
    1610:	ccc38393          	addi	t2,t2,-820 # cccc <fromhost+0xa6cc>
    1614:	ffd00093          	li	ra,-3
    1618:	00000113          	li	sp,0
    161c:	fe2086e3          	beq	ra,sp,1608 <rvtest_code_begin+0x1490>
    1620:	000123b7          	lui	t2,0x12
    1624:	3ab38393          	addi	t2,t2,939 # 123ab <fromhost+0xfdab>
    1628:	0072a423          	sw	t2,8(t0)
    162c:	0000d3b7          	lui	t2,0xd
    1630:	ccc38393          	addi	t2,t2,-820 # cccc <fromhost+0xa6cc>
    1634:	ffb00113          	li	sp,-5
    1638:	00000193          	li	gp,0
    163c:	00310663          	beq	sp,gp,1648 <rvtest_code_begin+0x14d0>
    1640:	000123b7          	lui	t2,0x12
    1644:	3ab38393          	addi	t2,t2,939 # 123ab <fromhost+0xfdab>
    1648:	0072a623          	sw	t2,12(t0)
    164c:	0000d3b7          	lui	t2,0xd
    1650:	ccc38393          	addi	t2,t2,-820 # cccc <fromhost+0xa6cc>
    1654:	ff700193          	li	gp,-9
    1658:	00000213          	li	tp,0
    165c:	00418663          	beq	gp,tp,1668 <rvtest_code_begin+0x14f0>
    1660:	000123b7          	lui	t2,0x12
    1664:	3ab38393          	addi	t2,t2,939 # 123ab <fromhost+0xfdab>
    1668:	0072a823          	sw	t2,16(t0)
    166c:	00001097          	auipc	ra,0x1
    1670:	bd408093          	addi	ra,ra,-1068 # 2240 <signature_29_0>
    1674:	0000d1b7          	lui	gp,0xd
    1678:	ccc18193          	addi	gp,gp,-820 # cccc <fromhost+0xa6cc>
    167c:	fef00213          	li	tp,-17
    1680:	00000293          	li	t0,0
    1684:	00520663          	beq	tp,t0,1690 <rvtest_code_begin+0x1518>
    1688:	000121b7          	lui	gp,0x12
    168c:	3ab18193          	addi	gp,gp,939 # 123ab <fromhost+0xfdab>
    1690:	0030a023          	sw	gp,0(ra)
    1694:	0000d1b7          	lui	gp,0xd
    1698:	ccc18193          	addi	gp,gp,-820 # cccc <fromhost+0xa6cc>
    169c:	fdf00293          	li	t0,-33
    16a0:	00000313          	li	t1,0
    16a4:	00628663          	beq	t0,t1,16b0 <rvtest_code_begin+0x1538>
    16a8:	000121b7          	lui	gp,0x12
    16ac:	3ab18193          	addi	gp,gp,939 # 123ab <fromhost+0xfdab>
    16b0:	0030a223          	sw	gp,4(ra)
    16b4:	0080006f          	j	16bc <rvtest_code_begin+0x1544>
    16b8:	0200006f          	j	16d8 <rvtest_code_begin+0x1560>
    16bc:	0000d1b7          	lui	gp,0xd
    16c0:	ccc18193          	addi	gp,gp,-820 # cccc <fromhost+0xa6cc>
    16c4:	fbf00313          	li	t1,-65
    16c8:	00000393          	li	t2,0
    16cc:	fe7306e3          	beq	t1,t2,16b8 <rvtest_code_begin+0x1540>
    16d0:	000121b7          	lui	gp,0x12
    16d4:	3ab18193          	addi	gp,gp,939 # 123ab <fromhost+0xfdab>
    16d8:	0030a423          	sw	gp,8(ra)
    16dc:	0000d1b7          	lui	gp,0xd
    16e0:	ccc18193          	addi	gp,gp,-820 # cccc <fromhost+0xa6cc>
    16e4:	f7f00393          	li	t2,-129
    16e8:	00000413          	li	s0,0
    16ec:	00838663          	beq	t2,s0,16f8 <rvtest_code_begin+0x1580>
    16f0:	000121b7          	lui	gp,0x12
    16f4:	3ab18193          	addi	gp,gp,939 # 123ab <fromhost+0xfdab>
    16f8:	0030a623          	sw	gp,12(ra)
    16fc:	0000d1b7          	lui	gp,0xd
    1700:	ccc18193          	addi	gp,gp,-820 # cccc <fromhost+0xa6cc>
    1704:	eff00413          	li	s0,-257
    1708:	00000493          	li	s1,0
    170c:	00940663          	beq	s0,s1,1718 <rvtest_code_begin+0x15a0>
    1710:	000121b7          	lui	gp,0x12
    1714:	3ab18193          	addi	gp,gp,939 # 123ab <fromhost+0xfdab>
    1718:	0030a823          	sw	gp,16(ra)
    171c:	00001097          	auipc	ra,0x1
    1720:	b3808093          	addi	ra,ra,-1224 # 2254 <signature_30_0>
    1724:	0000d1b7          	lui	gp,0xd
    1728:	ccc18193          	addi	gp,gp,-820 # cccc <fromhost+0xa6cc>
    172c:	dff00493          	li	s1,-513
    1730:	00000513          	li	a0,0
    1734:	00a48663          	beq	s1,a0,1740 <rvtest_code_begin+0x15c8>
    1738:	000121b7          	lui	gp,0x12
    173c:	3ab18193          	addi	gp,gp,939 # 123ab <fromhost+0xfdab>
    1740:	0030a023          	sw	gp,0(ra)
    1744:	0000d1b7          	lui	gp,0xd
    1748:	ccc18193          	addi	gp,gp,-820 # cccc <fromhost+0xa6cc>
    174c:	bff00513          	li	a0,-1025
    1750:	00000593          	li	a1,0
    1754:	00b50663          	beq	a0,a1,1760 <rvtest_code_begin+0x15e8>
    1758:	000121b7          	lui	gp,0x12
    175c:	3ab18193          	addi	gp,gp,939 # 123ab <fromhost+0xfdab>
    1760:	0030a223          	sw	gp,4(ra)
    1764:	0080006f          	j	176c <rvtest_code_begin+0x15f4>
    1768:	0240006f          	j	178c <rvtest_code_begin+0x1614>
    176c:	0000d1b7          	lui	gp,0xd
    1770:	ccc18193          	addi	gp,gp,-820 # cccc <fromhost+0xa6cc>
    1774:	fffff5b7          	lui	a1,0xfffff
    1778:	7ff58593          	addi	a1,a1,2047 # fffff7ff <fromhost+0xffffd1ff>
    177c:	00000613          	li	a2,0
    1780:	fec584e3          	beq	a1,a2,1768 <rvtest_code_begin+0x15f0>
    1784:	000121b7          	lui	gp,0x12
    1788:	3ab18193          	addi	gp,gp,939 # 123ab <fromhost+0xfdab>
    178c:	0030a423          	sw	gp,8(ra)
    1790:	0000d1b7          	lui	gp,0xd
    1794:	ccc18193          	addi	gp,gp,-820 # cccc <fromhost+0xa6cc>
    1798:	fffff637          	lui	a2,0xfffff
    179c:	fff60613          	addi	a2,a2,-1 # ffffefff <fromhost+0xffffc9ff>
    17a0:	00000693          	li	a3,0
    17a4:	00d60663          	beq	a2,a3,17b0 <rvtest_code_begin+0x1638>
    17a8:	000121b7          	lui	gp,0x12
    17ac:	3ab18193          	addi	gp,gp,939 # 123ab <fromhost+0xfdab>
    17b0:	0030a623          	sw	gp,12(ra)
    17b4:	0000d1b7          	lui	gp,0xd
    17b8:	ccc18193          	addi	gp,gp,-820 # cccc <fromhost+0xa6cc>
    17bc:	ffffe6b7          	lui	a3,0xffffe
    17c0:	fff68693          	addi	a3,a3,-1 # ffffdfff <fromhost+0xffffb9ff>
    17c4:	00000713          	li	a4,0
    17c8:	00e68663          	beq	a3,a4,17d4 <rvtest_code_begin+0x165c>
    17cc:	000121b7          	lui	gp,0x12
    17d0:	3ab18193          	addi	gp,gp,939 # 123ab <fromhost+0xfdab>
    17d4:	0030a823          	sw	gp,16(ra)
    17d8:	00001097          	auipc	ra,0x1
    17dc:	a9008093          	addi	ra,ra,-1392 # 2268 <signature_31_0>
    17e0:	0000d1b7          	lui	gp,0xd
    17e4:	ccc18193          	addi	gp,gp,-820 # cccc <fromhost+0xa6cc>
    17e8:	ffffc737          	lui	a4,0xffffc
    17ec:	fff70713          	addi	a4,a4,-1 # ffffbfff <fromhost+0xffff99ff>
    17f0:	00000793          	li	a5,0
    17f4:	00f70663          	beq	a4,a5,1800 <rvtest_code_begin+0x1688>
    17f8:	000121b7          	lui	gp,0x12
    17fc:	3ab18193          	addi	gp,gp,939 # 123ab <fromhost+0xfdab>
    1800:	0030a023          	sw	gp,0(ra)
    1804:	0000d1b7          	lui	gp,0xd
    1808:	ccc18193          	addi	gp,gp,-820 # cccc <fromhost+0xa6cc>
    180c:	ffff87b7          	lui	a5,0xffff8
    1810:	fff78793          	addi	a5,a5,-1 # ffff7fff <fromhost+0xffff59ff>
    1814:	00000813          	li	a6,0
    1818:	01078663          	beq	a5,a6,1824 <rvtest_code_begin+0x16ac>
    181c:	000121b7          	lui	gp,0x12
    1820:	3ab18193          	addi	gp,gp,939 # 123ab <fromhost+0xfdab>
    1824:	0030a223          	sw	gp,4(ra)
    1828:	0080006f          	j	1830 <rvtest_code_begin+0x16b8>
    182c:	0240006f          	j	1850 <rvtest_code_begin+0x16d8>
    1830:	0000d1b7          	lui	gp,0xd
    1834:	ccc18193          	addi	gp,gp,-820 # cccc <fromhost+0xa6cc>
    1838:	ffff0837          	lui	a6,0xffff0
    183c:	fff80813          	addi	a6,a6,-1 # fffeffff <fromhost+0xfffed9ff>
    1840:	00000893          	li	a7,0
    1844:	ff1804e3          	beq	a6,a7,182c <rvtest_code_begin+0x16b4>
    1848:	000121b7          	lui	gp,0x12
    184c:	3ab18193          	addi	gp,gp,939 # 123ab <fromhost+0xfdab>
    1850:	0030a423          	sw	gp,8(ra)
    1854:	0000d1b7          	lui	gp,0xd
    1858:	ccc18193          	addi	gp,gp,-820 # cccc <fromhost+0xa6cc>
    185c:	fffe08b7          	lui	a7,0xfffe0
    1860:	fff88893          	addi	a7,a7,-1 # fffdffff <fromhost+0xfffdd9ff>
    1864:	00000913          	li	s2,0
    1868:	01288663          	beq	a7,s2,1874 <rvtest_code_begin+0x16fc>
    186c:	000121b7          	lui	gp,0x12
    1870:	3ab18193          	addi	gp,gp,939 # 123ab <fromhost+0xfdab>
    1874:	0030a623          	sw	gp,12(ra)
    1878:	0000d1b7          	lui	gp,0xd
    187c:	ccc18193          	addi	gp,gp,-820 # cccc <fromhost+0xa6cc>
    1880:	fffc0937          	lui	s2,0xfffc0
    1884:	fff90913          	addi	s2,s2,-1 # fffbffff <fromhost+0xfffbd9ff>
    1888:	00000993          	li	s3,0
    188c:	01390663          	beq	s2,s3,1898 <rvtest_code_begin+0x1720>
    1890:	000121b7          	lui	gp,0x12
    1894:	3ab18193          	addi	gp,gp,939 # 123ab <fromhost+0xfdab>
    1898:	0030a823          	sw	gp,16(ra)
    189c:	00001097          	auipc	ra,0x1
    18a0:	9e008093          	addi	ra,ra,-1568 # 227c <signature_32_0>
    18a4:	0000d1b7          	lui	gp,0xd
    18a8:	ccc18193          	addi	gp,gp,-820 # cccc <fromhost+0xa6cc>
    18ac:	fff809b7          	lui	s3,0xfff80
    18b0:	fff98993          	addi	s3,s3,-1 # fff7ffff <fromhost+0xfff7d9ff>
    18b4:	00000a13          	li	s4,0
    18b8:	01498663          	beq	s3,s4,18c4 <rvtest_code_begin+0x174c>
    18bc:	000121b7          	lui	gp,0x12
    18c0:	3ab18193          	addi	gp,gp,939 # 123ab <fromhost+0xfdab>
    18c4:	0030a023          	sw	gp,0(ra)
    18c8:	0000d1b7          	lui	gp,0xd
    18cc:	ccc18193          	addi	gp,gp,-820 # cccc <fromhost+0xa6cc>
    18d0:	fff00a37          	lui	s4,0xfff00
    18d4:	fffa0a13          	addi	s4,s4,-1 # ffefffff <fromhost+0xffefd9ff>
    18d8:	00000a93          	li	s5,0
    18dc:	015a0663          	beq	s4,s5,18e8 <rvtest_code_begin+0x1770>
    18e0:	000121b7          	lui	gp,0x12
    18e4:	3ab18193          	addi	gp,gp,939 # 123ab <fromhost+0xfdab>
    18e8:	0030a223          	sw	gp,4(ra)
    18ec:	0080006f          	j	18f4 <rvtest_code_begin+0x177c>
    18f0:	0240006f          	j	1914 <rvtest_code_begin+0x179c>
    18f4:	0000d1b7          	lui	gp,0xd
    18f8:	ccc18193          	addi	gp,gp,-820 # cccc <fromhost+0xa6cc>
    18fc:	ffe00ab7          	lui	s5,0xffe00
    1900:	fffa8a93          	addi	s5,s5,-1 # ffdfffff <fromhost+0xffdfd9ff>
    1904:	00000b13          	li	s6,0
    1908:	ff6a84e3          	beq	s5,s6,18f0 <rvtest_code_begin+0x1778>
    190c:	000121b7          	lui	gp,0x12
    1910:	3ab18193          	addi	gp,gp,939 # 123ab <fromhost+0xfdab>
    1914:	0030a423          	sw	gp,8(ra)
    1918:	0000d1b7          	lui	gp,0xd
    191c:	ccc18193          	addi	gp,gp,-820 # cccc <fromhost+0xa6cc>
    1920:	ffc00b37          	lui	s6,0xffc00
    1924:	fffb0b13          	addi	s6,s6,-1 # ffbfffff <fromhost+0xffbfd9ff>
    1928:	00000b93          	li	s7,0
    192c:	017b0663          	beq	s6,s7,1938 <rvtest_code_begin+0x17c0>
    1930:	000121b7          	lui	gp,0x12
    1934:	3ab18193          	addi	gp,gp,939 # 123ab <fromhost+0xfdab>
    1938:	0030a623          	sw	gp,12(ra)
    193c:	0000d1b7          	lui	gp,0xd
    1940:	ccc18193          	addi	gp,gp,-820 # cccc <fromhost+0xa6cc>
    1944:	ff800bb7          	lui	s7,0xff800
    1948:	fffb8b93          	addi	s7,s7,-1 # ff7fffff <fromhost+0xff7fd9ff>
    194c:	00000c13          	li	s8,0
    1950:	018b8663          	beq	s7,s8,195c <rvtest_code_begin+0x17e4>
    1954:	000121b7          	lui	gp,0x12
    1958:	3ab18193          	addi	gp,gp,939 # 123ab <fromhost+0xfdab>
    195c:	0030a823          	sw	gp,16(ra)
    1960:	00001097          	auipc	ra,0x1
    1964:	93008093          	addi	ra,ra,-1744 # 2290 <signature_33_0>
    1968:	0000d1b7          	lui	gp,0xd
    196c:	ccc18193          	addi	gp,gp,-820 # cccc <fromhost+0xa6cc>
    1970:	ff000c37          	lui	s8,0xff000
    1974:	fffc0c13          	addi	s8,s8,-1 # feffffff <fromhost+0xfeffd9ff>
    1978:	00000c93          	li	s9,0
    197c:	019c0663          	beq	s8,s9,1988 <rvtest_code_begin+0x1810>
    1980:	000121b7          	lui	gp,0x12
    1984:	3ab18193          	addi	gp,gp,939 # 123ab <fromhost+0xfdab>
    1988:	0030a023          	sw	gp,0(ra)
    198c:	0000d1b7          	lui	gp,0xd
    1990:	ccc18193          	addi	gp,gp,-820 # cccc <fromhost+0xa6cc>
    1994:	fe000cb7          	lui	s9,0xfe000
    1998:	fffc8c93          	addi	s9,s9,-1 # fdffffff <fromhost+0xfdffd9ff>
    199c:	00000d13          	li	s10,0
    19a0:	01ac8663          	beq	s9,s10,19ac <rvtest_code_begin+0x1834>
    19a4:	000121b7          	lui	gp,0x12
    19a8:	3ab18193          	addi	gp,gp,939 # 123ab <fromhost+0xfdab>
    19ac:	0030a223          	sw	gp,4(ra)
    19b0:	0080006f          	j	19b8 <rvtest_code_begin+0x1840>
    19b4:	0240006f          	j	19d8 <rvtest_code_begin+0x1860>
    19b8:	0000d1b7          	lui	gp,0xd
    19bc:	ccc18193          	addi	gp,gp,-820 # cccc <fromhost+0xa6cc>
    19c0:	fc000d37          	lui	s10,0xfc000
    19c4:	fffd0d13          	addi	s10,s10,-1 # fbffffff <fromhost+0xfbffd9ff>
    19c8:	00000d93          	li	s11,0
    19cc:	ffbd04e3          	beq	s10,s11,19b4 <rvtest_code_begin+0x183c>
    19d0:	000121b7          	lui	gp,0x12
    19d4:	3ab18193          	addi	gp,gp,939 # 123ab <fromhost+0xfdab>
    19d8:	0030a423          	sw	gp,8(ra)
    19dc:	0000d1b7          	lui	gp,0xd
    19e0:	ccc18193          	addi	gp,gp,-820 # cccc <fromhost+0xa6cc>
    19e4:	f8000db7          	lui	s11,0xf8000
    19e8:	fffd8d93          	addi	s11,s11,-1 # f7ffffff <fromhost+0xf7ffd9ff>
    19ec:	00000e13          	li	t3,0
    19f0:	01cd8663          	beq	s11,t3,19fc <rvtest_code_begin+0x1884>
    19f4:	000121b7          	lui	gp,0x12
    19f8:	3ab18193          	addi	gp,gp,939 # 123ab <fromhost+0xfdab>
    19fc:	0030a623          	sw	gp,12(ra)
    1a00:	0000d1b7          	lui	gp,0xd
    1a04:	ccc18193          	addi	gp,gp,-820 # cccc <fromhost+0xa6cc>
    1a08:	f0000e37          	lui	t3,0xf0000
    1a0c:	fffe0e13          	addi	t3,t3,-1 # efffffff <fromhost+0xefffd9ff>
    1a10:	00000e93          	li	t4,0
    1a14:	01de0663          	beq	t3,t4,1a20 <rvtest_code_begin+0x18a8>
    1a18:	000121b7          	lui	gp,0x12
    1a1c:	3ab18193          	addi	gp,gp,939 # 123ab <fromhost+0xfdab>
    1a20:	0030a823          	sw	gp,16(ra)
    1a24:	00001117          	auipc	sp,0x1
    1a28:	88010113          	addi	sp,sp,-1920 # 22a4 <signature_34_0>
    1a2c:	0000d237          	lui	tp,0xd
    1a30:	ccc20213          	addi	tp,tp,-820 # cccc <fromhost+0xa6cc>
    1a34:	e0000eb7          	lui	t4,0xe0000
    1a38:	fffe8e93          	addi	t4,t4,-1 # dfffffff <fromhost+0xdfffd9ff>
    1a3c:	00000f13          	li	t5,0
    1a40:	01ee8663          	beq	t4,t5,1a4c <rvtest_code_begin+0x18d4>
    1a44:	00012237          	lui	tp,0x12
    1a48:	3ab20213          	addi	tp,tp,939 # 123ab <fromhost+0xfdab>
    1a4c:	00412023          	sw	tp,0(sp)
    1a50:	0000d237          	lui	tp,0xd
    1a54:	ccc20213          	addi	tp,tp,-820 # cccc <fromhost+0xa6cc>
    1a58:	c0000f37          	lui	t5,0xc0000
    1a5c:	ffff0f13          	addi	t5,t5,-1 # bfffffff <fromhost+0xbfffd9ff>
    1a60:	00000f93          	li	t6,0
    1a64:	01ff0663          	beq	t5,t6,1a70 <rvtest_code_begin+0x18f8>
    1a68:	00012237          	lui	tp,0x12
    1a6c:	3ab20213          	addi	tp,tp,939 # 123ab <fromhost+0xfdab>
    1a70:	00412223          	sw	tp,4(sp)
    1a74:	0080006f          	j	1a7c <rvtest_code_begin+0x1904>
    1a78:	0240006f          	j	1a9c <rvtest_code_begin+0x1924>
    1a7c:	0000d237          	lui	tp,0xd
    1a80:	ccc20213          	addi	tp,tp,-820 # cccc <fromhost+0xa6cc>
    1a84:	80000fb7          	lui	t6,0x80000
    1a88:	ffff8f93          	addi	t6,t6,-1 # 7fffffff <fromhost+0x7fffd9ff>
    1a8c:	00000093          	li	ra,0
    1a90:	fe1f84e3          	beq	t6,ra,1a78 <rvtest_code_begin+0x1900>
    1a94:	00012237          	lui	tp,0x12
    1a98:	3ab20213          	addi	tp,tp,939 # 123ab <fromhost+0xfdab>
    1a9c:	00412423          	sw	tp,8(sp)
    1aa0:	0000d237          	lui	tp,0xd
    1aa4:	ccc20213          	addi	tp,tp,-820 # cccc <fromhost+0xa6cc>
    1aa8:	f2615b37          	lui	s6,0xf2615
    1aac:	2e8b0b13          	addi	s6,s6,744 # f26152e8 <fromhost+0xf2612ce8>
    1ab0:	784cdb37          	lui	s6,0x784cd
    1ab4:	21db0b13          	addi	s6,s6,541 # 784cd21d <fromhost+0x784cac1d>
    1ab8:	016b0663          	beq	s6,s6,1ac4 <rvtest_code_begin+0x194c>
    1abc:	00012237          	lui	tp,0x12
    1ac0:	3ab20213          	addi	tp,tp,939 # 123ab <fromhost+0xfdab>
    1ac4:	00412623          	sw	tp,12(sp)
    1ac8:	0000d237          	lui	tp,0xd
    1acc:	ccc20213          	addi	tp,tp,-820 # cccc <fromhost+0xa6cc>
    1ad0:	4fc38037          	lui	zero,0x4fc38
    1ad4:	43100013          	li	zero,1073
    1ad8:	f5ea86b7          	lui	a3,0xf5ea8
    1adc:	bf368693          	addi	a3,a3,-1037 # f5ea7bf3 <fromhost+0xf5ea55f3>
    1ae0:	00d00663          	beq	zero,a3,1aec <rvtest_code_begin+0x1974>
    1ae4:	00012237          	lui	tp,0x12
    1ae8:	3ab20213          	addi	tp,tp,939 # 123ab <fromhost+0xfdab>
    1aec:	00412823          	sw	tp,16(sp)
    1af0:	00000097          	auipc	ra,0x0
    1af4:	7c808093          	addi	ra,ra,1992 # 22b8 <signature_35_0>
    1af8:	0000d1b7          	lui	gp,0xd
    1afc:	ccc18193          	addi	gp,gp,-820 # cccc <fromhost+0xa6cc>
    1b00:	572ec3b7          	lui	t2,0x572ec
    1b04:	7a138393          	addi	t2,t2,1953 # 572ec7a1 <fromhost+0x572ea1a1>
    1b08:	5742d037          	lui	zero,0x5742d
    1b0c:	fa500013          	li	zero,-91
    1b10:	00038663          	beqz	t2,1b1c <rvtest_code_begin+0x19a4>
    1b14:	000121b7          	lui	gp,0x12
    1b18:	3ab18193          	addi	gp,gp,939 # 123ab <fromhost+0xfdab>
    1b1c:	0030a023          	sw	gp,0(ra)

00001b20 <rvtest_code_end>:
    1b20:	0ff0000f          	fence
    1b24:	00000073          	ecall

Disassembly of section .tohost:

00002500 <tohost>:
	...

00002600 <fromhost>:
	...
