
/home/hassan/nucleusrv/imperas-riscv-tests/work/rv32i_m/I/I-MISALIGN_JMP-01.elf:     file format elf32-littleriscv


Disassembly of section .text.init:

00000000 <rvtest_entry_point>:
   0:	0440006f          	j	44 <reset_vector>

00000004 <trap_vector>:
   4:	342022f3          	csrr	t0,mcause
   8:	00800313          	li	t1,8
   c:	02628663          	beq	t0,t1,38 <write_tohost>
  10:	00900313          	li	t1,9
  14:	02628263          	beq	t0,t1,38 <write_tohost>
  18:	00b00313          	li	t1,11
  1c:	00628e63          	beq	t0,t1,38 <write_tohost>
  20:	00000293          	li	t0,0
  24:	00028463          	beqz	t0,2c <trap_vector+0x28>
  28:	00028067          	jr	t0
  2c:	342022f3          	csrr	t0,mcause
  30:	0002d263          	bgez	t0,34 <handle_exception>

00000034 <handle_exception>:
  34:	5391e193          	ori	gp,gp,1337

00000038 <write_tohost>:
  38:	00002297          	auipc	t0,0x2
  3c:	2c32a423          	sw	gp,712(t0) # 2300 <tohost>
  40:	ff9ff06f          	j	38 <write_tohost>

00000044 <reset_vector>:
  44:	00002537          	lui	a0,0x2
  48:	80050513          	addi	a0,a0,-2048 # 1800 <rvtest_code_end+0x1440>
  4c:	30052073          	csrs	mstatus,a0
  50:	00000297          	auipc	t0,0x0
  54:	fb428293          	addi	t0,t0,-76 # 4 <trap_vector>
  58:	30529073          	csrw	mtvec,t0
  5c:	00000297          	auipc	t0,0x0
  60:	02428293          	addi	t0,t0,36 # 80 <rvtest_init>
  64:	34129073          	csrw	mepc,t0
  68:	f1402573          	csrr	a0,mhartid
  6c:	30200073          	mret
  70:	00000013          	nop
  74:	00000013          	nop
  78:	00000013          	nop
  7c:	00000013          	nop

00000080 <rvtest_init>:
  80:	feedc0b7          	lui	ra,0xfeedc
  84:	ead08093          	addi	ra,ra,-339 # feedbead <fromhost+0xfeed9aad>
  88:	ff76e137          	lui	sp,0xff76e
  8c:	f5610113          	addi	sp,sp,-170 # ff76df56 <fromhost+0xff76bb56>
  90:	7fbb71b7          	lui	gp,0x7fbb7
  94:	fab18193          	addi	gp,gp,-85 # 7fbb6fab <fromhost+0x7fbb4bab>
  98:	bfddb237          	lui	tp,0xbfddb
  9c:	7d520213          	addi	tp,tp,2005 # bfddb7d5 <fromhost+0xbfdd93d5>
  a0:	00000297          	auipc	t0,0x0
  a4:	0d828293          	addi	t0,t0,216 # 178 <rvtest_code_begin>
  a8:	00002317          	auipc	t1,0x2
  ac:	f5830313          	addi	t1,t1,-168 # 2000 <begin_signature>
  b0:	b7fbb3b7          	lui	t2,0xb7fbb
  b4:	6fa38393          	addi	t2,t2,1786 # b7fbb6fa <fromhost+0xb7fb92fa>
  b8:	5bfde437          	lui	s0,0x5bfde
  bc:	b7d40413          	addi	s0,s0,-1155 # 5bfddb7d <fromhost+0x5bfdb77d>
  c0:	adfef4b7          	lui	s1,0xadfef
  c4:	dbe48493          	addi	s1,s1,-578 # adfeedbe <fromhost+0xadfec9be>
  c8:	56ff7537          	lui	a0,0x56ff7
  cc:	6df50513          	addi	a0,a0,1759 # 56ff76df <fromhost+0x56ff52df>
  d0:	ab7fc5b7          	lui	a1,0xab7fc
  d4:	b6f58593          	addi	a1,a1,-1169 # ab7fbb6f <fromhost+0xab7f976f>
  d8:	d5bfe637          	lui	a2,0xd5bfe
  dc:	db760613          	addi	a2,a2,-585 # d5bfddb7 <fromhost+0xd5bfb9b7>
  e0:	eadff6b7          	lui	a3,0xeadff
  e4:	edb68693          	addi	a3,a3,-293 # eadfeedb <fromhost+0xeadfcadb>
  e8:	f56ff737          	lui	a4,0xf56ff
  ec:	76d70713          	addi	a4,a4,1901 # f56ff76d <fromhost+0xf56fd36d>
  f0:	fab807b7          	lui	a5,0xfab80
  f4:	bb678793          	addi	a5,a5,-1098 # fab7fbb6 <fromhost+0xfab7d7b6>
  f8:	7d5c0837          	lui	a6,0x7d5c0
  fc:	ddb80813          	addi	a6,a6,-549 # 7d5bfddb <fromhost+0x7d5bd9db>
 100:	beae08b7          	lui	a7,0xbeae0
 104:	eed88893          	addi	a7,a7,-275 # beadfeed <fromhost+0xbeaddaed>
 108:	df570937          	lui	s2,0xdf570
 10c:	f7690913          	addi	s2,s2,-138 # df56ff76 <fromhost+0xdf56db76>
 110:	6fab89b7          	lui	s3,0x6fab8
 114:	fbb98993          	addi	s3,s3,-69 # 6fab7fbb <fromhost+0x6fab5bbb>
 118:	b7d5ca37          	lui	s4,0xb7d5c
 11c:	fdda0a13          	addi	s4,s4,-35 # b7d5bfdd <fromhost+0xb7d59bdd>
 120:	dbeaeab7          	lui	s5,0xdbeae
 124:	feea8a93          	addi	s5,s5,-18 # dbeadfee <fromhost+0xdbeabbee>
 128:	6df57b37          	lui	s6,0x6df57
 12c:	ff7b0b13          	addi	s6,s6,-9 # 6df56ff7 <fromhost+0x6df54bf7>
 130:	b6fabbb7          	lui	s7,0xb6fab
 134:	7fbb8b93          	addi	s7,s7,2043 # b6fab7fb <fromhost+0xb6fa93fb>
 138:	db7d6c37          	lui	s8,0xdb7d6
 13c:	bfdc0c13          	addi	s8,s8,-1027 # db7d5bfd <fromhost+0xdb7d37fd>
 140:	edbebcb7          	lui	s9,0xedbeb
 144:	dfec8c93          	addi	s9,s9,-514 # edbeadfe <fromhost+0xedbe89fe>
 148:	76df5d37          	lui	s10,0x76df5
 14c:	6ffd0d13          	addi	s10,s10,1791 # 76df56ff <fromhost+0x76df32ff>
 150:	bb6fbdb7          	lui	s11,0xbb6fb
 154:	b7fd8d93          	addi	s11,s11,-1153 # bb6fab7f <fromhost+0xbb6f877f>
 158:	ddb7de37          	lui	t3,0xddb7d
 15c:	5bfe0e13          	addi	t3,t3,1471 # ddb7d5bf <fromhost+0xddb7b1bf>
 160:	eedbfeb7          	lui	t4,0xeedbf
 164:	adfe8e93          	addi	t4,t4,-1313 # eedbeadf <fromhost+0xeedbc6df>
 168:	f76dff37          	lui	t5,0xf76df
 16c:	56ff0f13          	addi	t5,t5,1391 # f76df56f <fromhost+0xf76dd16f>
 170:	fbb70fb7          	lui	t6,0xfbb70
 174:	ab7f8f93          	addi	t6,t6,-1353 # fbb6fab7 <fromhost+0xfbb6d6b7>

00000178 <rvtest_code_begin>:
 178:	00000097          	auipc	ra,0x0
 17c:	20808093          	addi	ra,ra,520 # 380 <_trap_handler>
 180:	30509ff3          	csrrw	t6,mtvec,ra
 184:	30127073          	csrci	misa,4
 188:	00002097          	auipc	ra,0x2
 18c:	e7808093          	addi	ra,ra,-392 # 2000 <begin_signature>
 190:	11111137          	lui	sp,0x11111
 194:	11110113          	addi	sp,sp,273 # 11111111 <fromhost+0x1110ed11>
 198:	00a0006f          	j	1a2 <rvtest_code_begin+0x2a>
 19c:	00000113          	li	sp,0
 1a0:	00002097          	auipc	ra,0x2
 1a4:	e6c08093          	addi	ra,ra,-404 # 200c <test_A2_res>

000001a8 <inst_0>:
 1a8:	22222137          	lui	sp,0x22222
 1ac:	22210113          	addi	sp,sp,546 # 22222222 <fromhost+0x2221fe22>
 1b0:	00000217          	auipc	tp,0x0
 1b4:	01120213          	addi	tp,tp,17 # 1c1 <inst_0+0x19>
 1b8:	00020067          	jr	tp # 0 <rvtest_entry_point>
 1bc:	00000113          	li	sp,0
 1c0:	0020a023          	sw	sp,0(ra)
 1c4:	00408093          	addi	ra,ra,4
 1c8:	33333137          	lui	sp,0x33333
 1cc:	33310113          	addi	sp,sp,819 # 33333333 <fromhost+0x33330f33>
 1d0:	00000217          	auipc	tp,0x0
 1d4:	01020213          	addi	tp,tp,16 # 1e0 <inst_0+0x38>
 1d8:	00120067          	jr	1(tp) # 0 <rvtest_entry_point>
 1dc:	00000113          	li	sp,0
 1e0:	0020a023          	sw	sp,0(ra)
 1e4:	00408093          	addi	ra,ra,4
 1e8:	44444137          	lui	sp,0x44444
 1ec:	44410113          	addi	sp,sp,1092 # 44444444 <fromhost+0x44442044>
 1f0:	00000217          	auipc	tp,0x0
 1f4:	01420213          	addi	tp,tp,20 # 204 <inst_0+0x5c>
 1f8:	ffd20067          	jr	-3(tp) # 0 <rvtest_entry_point>
 1fc:	00000113          	li	sp,0
 200:	0020a023          	sw	sp,0(ra)
 204:	00408093          	addi	ra,ra,4
 208:	00002097          	auipc	ra,0x2
 20c:	e1008093          	addi	ra,ra,-496 # 2018 <test_A3_res_exc>

00000210 <inst_1>:
 210:	55555137          	lui	sp,0x55555
 214:	55510113          	addi	sp,sp,1365 # 55555555 <fromhost+0x55553155>
 218:	00000217          	auipc	tp,0x0
 21c:	01220213          	addi	tp,tp,18 # 22a <inst_1+0x1a>
 220:	00020067          	jr	tp # 0 <rvtest_entry_point>
 224:	00000113          	li	sp,0
 228:	66666137          	lui	sp,0x66666
 22c:	66610113          	addi	sp,sp,1638 # 66666666 <fromhost+0x66664266>
 230:	00000217          	auipc	tp,0x0
 234:	01320213          	addi	tp,tp,19 # 243 <inst_1+0x33>
 238:	00020067          	jr	tp # 0 <rvtest_entry_point>
 23c:	00000113          	li	sp,0
 240:	77777137          	lui	sp,0x77777
 244:	77710113          	addi	sp,sp,1911 # 77777777 <fromhost+0x77775377>
 248:	00000217          	auipc	tp,0x0
 24c:	01020213          	addi	tp,tp,16 # 258 <inst_1+0x48>
 250:	00220067          	jr	2(tp) # 0 <rvtest_entry_point>
 254:	00000113          	li	sp,0
 258:	88889137          	lui	sp,0x88889
 25c:	88810113          	addi	sp,sp,-1912 # 88888888 <fromhost+0x88886488>
 260:	00000217          	auipc	tp,0x0
 264:	01020213          	addi	tp,tp,16 # 270 <inst_1+0x60>
 268:	00320067          	jr	3(tp) # 0 <rvtest_entry_point>
 26c:	00000113          	li	sp,0
 270:	00002097          	auipc	ra,0x2
 274:	dd808093          	addi	ra,ra,-552 # 2048 <test_B1_res_exc>

00000278 <inst_2>:
 278:	00500293          	li	t0,5
 27c:	00600313          	li	t1,6
 280:	00628763          	beq	t0,t1,28e <inst_2+0x16>
 284:	9999a137          	lui	sp,0x9999a
 288:	99910113          	addi	sp,sp,-1639 # 99999999 <fromhost+0x99997599>
 28c:	00000013          	nop
 290:	00000013          	nop
 294:	00528563          	beq	t0,t0,29e <inst_2+0x26>
 298:	00000113          	li	sp,0
 29c:	00002097          	auipc	ra,0x2
 2a0:	db808093          	addi	ra,ra,-584 # 2054 <test_B2_res_exc>
 2a4:	00500293          	li	t0,5
 2a8:	00600313          	li	t1,6
 2ac:	00529763          	bne	t0,t0,2ba <inst_2+0x42>
 2b0:	aaaab137          	lui	sp,0xaaaab
 2b4:	aaa10113          	addi	sp,sp,-1366 # aaaaaaaa <fromhost+0xaaaa86aa>
 2b8:	00000013          	nop
 2bc:	00000013          	nop
 2c0:	00629563          	bne	t0,t1,2ca <inst_2+0x52>
 2c4:	00000113          	li	sp,0
 2c8:	00002097          	auipc	ra,0x2
 2cc:	d9808093          	addi	ra,ra,-616 # 2060 <test_B3_res_exc>

000002d0 <inst_3>:
 2d0:	00500293          	li	t0,5
 2d4:	00600313          	li	t1,6
 2d8:	00534763          	blt	t1,t0,2e6 <inst_3+0x16>
 2dc:	bbbbc137          	lui	sp,0xbbbbc
 2e0:	bbb10113          	addi	sp,sp,-1093 # bbbbbbbb <fromhost+0xbbbb97bb>
 2e4:	00000013          	nop
 2e8:	00000013          	nop
 2ec:	0062c563          	blt	t0,t1,2f6 <inst_3+0x26>
 2f0:	00000113          	li	sp,0
 2f4:	00002097          	auipc	ra,0x2
 2f8:	d7808093          	addi	ra,ra,-648 # 206c <test_B4_res_exc>

000002fc <inst_4>:
 2fc:	00500293          	li	t0,5
 300:	00600313          	li	t1,6
 304:	00536763          	bltu	t1,t0,312 <inst_4+0x16>
 308:	ccccd137          	lui	sp,0xccccd
 30c:	ccc10113          	addi	sp,sp,-820 # cccccccc <fromhost+0xcccca8cc>
 310:	00000013          	nop
 314:	00000013          	nop
 318:	0062e563          	bltu	t0,t1,322 <inst_4+0x26>
 31c:	00000113          	li	sp,0
 320:	00002097          	auipc	ra,0x2
 324:	d5808093          	addi	ra,ra,-680 # 2078 <test_B5_res_exc>

00000328 <inst_5>:
 328:	00500293          	li	t0,5
 32c:	00600313          	li	t1,6
 330:	0062d763          	bge	t0,t1,33e <inst_5+0x16>
 334:	dddde137          	lui	sp,0xdddde
 338:	ddd10113          	addi	sp,sp,-547 # dddddddd <fromhost+0xddddb9dd>
 33c:	00000013          	nop
 340:	00000013          	nop
 344:	00535563          	bge	t1,t0,34e <inst_5+0x26>
 348:	00000113          	li	sp,0
 34c:	00002097          	auipc	ra,0x2
 350:	d3808093          	addi	ra,ra,-712 # 2084 <test_B6_res_exc>

00000354 <inst_6>:
 354:	00500293          	li	t0,5
 358:	00600313          	li	t1,6
 35c:	0062f763          	bgeu	t0,t1,36a <inst_6+0x16>
 360:	eeeef137          	lui	sp,0xeeeef
 364:	eee10113          	addi	sp,sp,-274 # eeeeeeee <fromhost+0xeeeecaee>
 368:	00000013          	nop
 36c:	00000013          	nop
 370:	00537563          	bgeu	t1,t0,37a <inst_6+0x26>
 374:	00000113          	li	sp,0
 378:	305f9073          	csrw	mtvec,t6
 37c:	0300006f          	j	3ac <test_end>

00000380 <_trap_handler>:
 380:	34302f73          	csrr	t5,mtval
 384:	ffef0f13          	addi	t5,t5,-2
 388:	341f1073          	csrw	mepc,t5
 38c:	34302f73          	csrr	t5,mtval
 390:	003f7f13          	andi	t5,t5,3
 394:	01e0a023          	sw	t5,0(ra)
 398:	34202f73          	csrr	t5,mcause
 39c:	01e0a223          	sw	t5,4(ra)
 3a0:	0020a423          	sw	sp,8(ra)
 3a4:	00c08093          	addi	ra,ra,12
 3a8:	30200073          	mret

000003ac <test_end>:
 3ac:	0ff0000f          	fence
 3b0:	00000073          	ecall
 3b4:	00000013          	nop
 3b8:	00000013          	nop
 3bc:	00000013          	nop

000003c0 <rvtest_code_end>:
	...

Disassembly of section .tohost:

00002300 <tohost>:
	...

00002400 <fromhost>:
	...
