
/home/hassan/nucleusrv/imperas-riscv-tests/work/rv32i_m/I/I-RF_x0-01.elf:     file format elf32-littleriscv


Disassembly of section .text.init:

00000000 <rvtest_entry_point>:
   0:	0440006f          	j	44 <reset_vector>

00000004 <trap_vector>:
   4:	342022f3          	csrr	t0,mcause
   8:	00800313          	li	t1,8
   c:	02628663          	beq	t0,t1,38 <write_tohost>
  10:	00900313          	li	t1,9
  14:	02628263          	beq	t0,t1,38 <write_tohost>
  18:	00b00313          	li	t1,11
  1c:	00628e63          	beq	t0,t1,38 <write_tohost>
  20:	00000293          	li	t0,0
  24:	00028463          	beqz	t0,2c <trap_vector+0x28>
  28:	00028067          	jr	t0
  2c:	342022f3          	csrr	t0,mcause
  30:	0002d263          	bgez	t0,34 <handle_exception>

00000034 <handle_exception>:
  34:	5391e193          	ori	gp,gp,1337

00000038 <write_tohost>:
  38:	00002297          	auipc	t0,0x2
  3c:	2c32a423          	sw	gp,712(t0) # 2300 <tohost>
  40:	ff9ff06f          	j	38 <write_tohost>

00000044 <reset_vector>:
  44:	00002537          	lui	a0,0x2
  48:	80050513          	addi	a0,a0,-2048 # 1800 <rvtest_code_end+0x1580>
  4c:	30052073          	csrs	mstatus,a0
  50:	00000297          	auipc	t0,0x0
  54:	fb428293          	addi	t0,t0,-76 # 4 <trap_vector>
  58:	30529073          	csrw	mtvec,t0
  5c:	00000297          	auipc	t0,0x0
  60:	02428293          	addi	t0,t0,36 # 80 <rvtest_init>
  64:	34129073          	csrw	mepc,t0
  68:	f1402573          	csrr	a0,mhartid
  6c:	30200073          	mret
  70:	00000013          	nop
  74:	00000013          	nop
  78:	00000013          	nop
  7c:	00000013          	nop

00000080 <rvtest_init>:
  80:	feedc0b7          	lui	ra,0xfeedc
  84:	ead08093          	addi	ra,ra,-339 # feedbead <fromhost+0xfeed9aad>
  88:	ff76e137          	lui	sp,0xff76e
  8c:	f5610113          	addi	sp,sp,-170 # ff76df56 <fromhost+0xff76bb56>
  90:	7fbb71b7          	lui	gp,0x7fbb7
  94:	fab18193          	addi	gp,gp,-85 # 7fbb6fab <fromhost+0x7fbb4bab>
  98:	bfddb237          	lui	tp,0xbfddb
  9c:	7d520213          	addi	tp,tp,2005 # bfddb7d5 <fromhost+0xbfdd93d5>
  a0:	00000297          	auipc	t0,0x0
  a4:	0d828293          	addi	t0,t0,216 # 178 <rvtest_code_begin>
  a8:	00002317          	auipc	t1,0x2
  ac:	f5830313          	addi	t1,t1,-168 # 2000 <rvtest_data_begin>
  b0:	b7fbb3b7          	lui	t2,0xb7fbb
  b4:	6fa38393          	addi	t2,t2,1786 # b7fbb6fa <fromhost+0xb7fb92fa>
  b8:	5bfde437          	lui	s0,0x5bfde
  bc:	b7d40413          	addi	s0,s0,-1155 # 5bfddb7d <fromhost+0x5bfdb77d>
  c0:	adfef4b7          	lui	s1,0xadfef
  c4:	dbe48493          	addi	s1,s1,-578 # adfeedbe <fromhost+0xadfec9be>
  c8:	56ff7537          	lui	a0,0x56ff7
  cc:	6df50513          	addi	a0,a0,1759 # 56ff76df <fromhost+0x56ff52df>
  d0:	ab7fc5b7          	lui	a1,0xab7fc
  d4:	b6f58593          	addi	a1,a1,-1169 # ab7fbb6f <fromhost+0xab7f976f>
  d8:	d5bfe637          	lui	a2,0xd5bfe
  dc:	db760613          	addi	a2,a2,-585 # d5bfddb7 <fromhost+0xd5bfb9b7>
  e0:	eadff6b7          	lui	a3,0xeadff
  e4:	edb68693          	addi	a3,a3,-293 # eadfeedb <fromhost+0xeadfcadb>
  e8:	f56ff737          	lui	a4,0xf56ff
  ec:	76d70713          	addi	a4,a4,1901 # f56ff76d <fromhost+0xf56fd36d>
  f0:	fab807b7          	lui	a5,0xfab80
  f4:	bb678793          	addi	a5,a5,-1098 # fab7fbb6 <fromhost+0xfab7d7b6>
  f8:	7d5c0837          	lui	a6,0x7d5c0
  fc:	ddb80813          	addi	a6,a6,-549 # 7d5bfddb <fromhost+0x7d5bd9db>
 100:	beae08b7          	lui	a7,0xbeae0
 104:	eed88893          	addi	a7,a7,-275 # beadfeed <fromhost+0xbeaddaed>
 108:	df570937          	lui	s2,0xdf570
 10c:	f7690913          	addi	s2,s2,-138 # df56ff76 <fromhost+0xdf56db76>
 110:	6fab89b7          	lui	s3,0x6fab8
 114:	fbb98993          	addi	s3,s3,-69 # 6fab7fbb <fromhost+0x6fab5bbb>
 118:	b7d5ca37          	lui	s4,0xb7d5c
 11c:	fdda0a13          	addi	s4,s4,-35 # b7d5bfdd <fromhost+0xb7d59bdd>
 120:	dbeaeab7          	lui	s5,0xdbeae
 124:	feea8a93          	addi	s5,s5,-18 # dbeadfee <fromhost+0xdbeabbee>
 128:	6df57b37          	lui	s6,0x6df57
 12c:	ff7b0b13          	addi	s6,s6,-9 # 6df56ff7 <fromhost+0x6df54bf7>
 130:	b6fabbb7          	lui	s7,0xb6fab
 134:	7fbb8b93          	addi	s7,s7,2043 # b6fab7fb <fromhost+0xb6fa93fb>
 138:	db7d6c37          	lui	s8,0xdb7d6
 13c:	bfdc0c13          	addi	s8,s8,-1027 # db7d5bfd <fromhost+0xdb7d37fd>
 140:	edbebcb7          	lui	s9,0xedbeb
 144:	dfec8c93          	addi	s9,s9,-514 # edbeadfe <fromhost+0xedbe89fe>
 148:	76df5d37          	lui	s10,0x76df5
 14c:	6ffd0d13          	addi	s10,s10,1791 # 76df56ff <fromhost+0x76df32ff>
 150:	bb6fbdb7          	lui	s11,0xbb6fb
 154:	b7fd8d93          	addi	s11,s11,-1153 # bb6fab7f <fromhost+0xbb6f877f>
 158:	ddb7de37          	lui	t3,0xddb7d
 15c:	5bfe0e13          	addi	t3,t3,1471 # ddb7d5bf <fromhost+0xddb7b1bf>
 160:	eedbfeb7          	lui	t4,0xeedbf
 164:	adfe8e93          	addi	t4,t4,-1313 # eedbeadf <fromhost+0xeedbc6df>
 168:	f76dff37          	lui	t5,0xf76df
 16c:	56ff0f13          	addi	t5,t5,1391 # f76df56f <fromhost+0xf76dd16f>
 170:	fbb70fb7          	lui	t6,0xfbb70
 174:	ab7f8f93          	addi	t6,t6,-1353 # fbb6fab7 <fromhost+0xfbb6d6b7>

00000178 <rvtest_code_begin>:
 178:	00002f97          	auipc	t6,0x2
 17c:	e98f8f93          	addi	t6,t6,-360 # 2010 <begin_signature>

00000180 <inst_0>:
 180:	abcde037          	lui	zero,0xabcde
 184:	00100013          	li	zero,1
 188:	7f006013          	ori	zero,zero,2032
 18c:	53f07013          	andi	zero,zero,1343
 190:	80304013          	xori	zero,zero,-2045
 194:	00501013          	slli	zero,zero,0x5
 198:	40205013          	srai	zero,zero,0x2
 19c:	00405013          	srli	zero,zero,0x4
 1a0:	000fa023          	sw	zero,0(t6)
 1a4:	00002f97          	auipc	t6,0x2
 1a8:	e70f8f93          	addi	t6,t6,-400 # 2014 <test_A2_res>

000001ac <inst_1>:
 1ac:	00100093          	li	ra,1
 1b0:	7f000113          	li	sp,2032
 1b4:	53f00193          	li	gp,1343
 1b8:	80300213          	li	tp,-2045
 1bc:	00500293          	li	t0,5
 1c0:	00200313          	li	t1,2
 1c4:	00400393          	li	t2,4
 1c8:	01800413          	li	s0,24
 1cc:	abcde017          	auipc	zero,0xabcde
 1d0:	00100033          	add	zero,zero,ra
 1d4:	00206033          	or	zero,zero,sp
 1d8:	00307033          	and	zero,zero,gp
 1dc:	00404033          	xor	zero,zero,tp
 1e0:	00501033          	sll	zero,zero,t0
 1e4:	40605033          	sra	zero,zero,t1
 1e8:	00705033          	srl	zero,zero,t2
 1ec:	40800033          	neg	zero,s0
 1f0:	000fa023          	sw	zero,0(t6)
 1f4:	00002f97          	auipc	t6,0x2
 1f8:	e24f8f93          	addi	t6,t6,-476 # 2018 <test_A3_res>

000001fc <inst_2>:
 1fc:	00100093          	li	ra,1
 200:	00200113          	li	sp,2
 204:	0020a033          	slt	zero,ra,sp
 208:	000fa023          	sw	zero,0(t6)
 20c:	0020b033          	sltu	zero,ra,sp
 210:	000fa223          	sw	zero,4(t6)
 214:	0020a013          	slti	zero,ra,2
 218:	000fa423          	sw	zero,8(t6)
 21c:	0020b013          	sltiu	zero,ra,2
 220:	000fa623          	sw	zero,12(t6)
 224:	00002f97          	auipc	t6,0x2
 228:	e04f8f93          	addi	t6,t6,-508 # 2028 <test_A4_res>

0000022c <inst_3>:
 22c:	0040006f          	j	230 <inst_3+0x4>
 230:	000fa023          	sw	zero,0(t6)
 234:	00000097          	auipc	ra,0x0
 238:	00c08093          	addi	ra,ra,12 # 240 <inst_3+0x14>
 23c:	00008067          	ret
 240:	000fa223          	sw	zero,4(t6)
 244:	00002097          	auipc	ra,0x2
 248:	dbc08093          	addi	ra,ra,-580 # 2000 <rvtest_data_begin>
 24c:	00002f97          	auipc	t6,0x2
 250:	de4f8f93          	addi	t6,t6,-540 # 2030 <test_A5_res>

00000254 <inst_4>:
 254:	0000a003          	lw	zero,0(ra)
 258:	000fa023          	sw	zero,0(t6)
 25c:	00009003          	lh	zero,0(ra)
 260:	000fa223          	sw	zero,4(t6)
 264:	00008003          	lb	zero,0(ra)
 268:	000fa423          	sw	zero,8(t6)
 26c:	0000c003          	lbu	zero,0(ra)
 270:	000fa623          	sw	zero,12(t6)
 274:	0ff0000f          	fence
 278:	00000073          	ecall
 27c:	00000013          	nop

00000280 <rvtest_code_end>:
	...

Disassembly of section .tohost:

00002300 <tohost>:
	...

00002400 <fromhost>:
	...
