
/home/hassan/nucleusrv/imperas-riscv-tests/work/rv32i_m/I/I-RF_width-01.elf:     file format elf32-littleriscv


Disassembly of section .text.init:

00000000 <rvtest_entry_point>:
   0:	0440006f          	j	44 <reset_vector>

00000004 <trap_vector>:
   4:	342022f3          	csrr	t0,mcause
   8:	00800313          	li	t1,8
   c:	02628663          	beq	t0,t1,38 <write_tohost>
  10:	00900313          	li	t1,9
  14:	02628263          	beq	t0,t1,38 <write_tohost>
  18:	00b00313          	li	t1,11
  1c:	00628e63          	beq	t0,t1,38 <write_tohost>
  20:	00000293          	li	t0,0
  24:	00028463          	beqz	t0,2c <trap_vector+0x28>
  28:	00028067          	jr	t0
  2c:	342022f3          	csrr	t0,mcause
  30:	0002d263          	bgez	t0,34 <handle_exception>

00000034 <handle_exception>:
  34:	5391e193          	ori	gp,gp,1337

00000038 <write_tohost>:
  38:	00002297          	auipc	t0,0x2
  3c:	2c32a423          	sw	gp,712(t0) # 2300 <tohost>
  40:	ff9ff06f          	j	38 <write_tohost>

00000044 <reset_vector>:
  44:	00002537          	lui	a0,0x2
  48:	80050513          	addi	a0,a0,-2048 # 1800 <rvtest_code_end+0x13f0>
  4c:	30052073          	csrs	mstatus,a0
  50:	00000297          	auipc	t0,0x0
  54:	fb428293          	addi	t0,t0,-76 # 4 <trap_vector>
  58:	30529073          	csrw	mtvec,t0
  5c:	00000297          	auipc	t0,0x0
  60:	02428293          	addi	t0,t0,36 # 80 <rvtest_init>
  64:	34129073          	csrw	mepc,t0
  68:	f1402573          	csrr	a0,mhartid
  6c:	30200073          	mret
  70:	00000013          	nop
  74:	00000013          	nop
  78:	00000013          	nop
  7c:	00000013          	nop

00000080 <rvtest_init>:
  80:	feedc0b7          	lui	ra,0xfeedc
  84:	ead08093          	addi	ra,ra,-339 # feedbead <fromhost+0xfeed9aad>
  88:	ff76e137          	lui	sp,0xff76e
  8c:	f5610113          	addi	sp,sp,-170 # ff76df56 <fromhost+0xff76bb56>
  90:	7fbb71b7          	lui	gp,0x7fbb7
  94:	fab18193          	addi	gp,gp,-85 # 7fbb6fab <fromhost+0x7fbb4bab>
  98:	bfddb237          	lui	tp,0xbfddb
  9c:	7d520213          	addi	tp,tp,2005 # bfddb7d5 <fromhost+0xbfdd93d5>
  a0:	00000297          	auipc	t0,0x0
  a4:	0d828293          	addi	t0,t0,216 # 178 <rvtest_code_begin>
  a8:	00002317          	auipc	t1,0x2
  ac:	f5830313          	addi	t1,t1,-168 # 2000 <begin_signature>
  b0:	b7fbb3b7          	lui	t2,0xb7fbb
  b4:	6fa38393          	addi	t2,t2,1786 # b7fbb6fa <fromhost+0xb7fb92fa>
  b8:	5bfde437          	lui	s0,0x5bfde
  bc:	b7d40413          	addi	s0,s0,-1155 # 5bfddb7d <fromhost+0x5bfdb77d>
  c0:	adfef4b7          	lui	s1,0xadfef
  c4:	dbe48493          	addi	s1,s1,-578 # adfeedbe <fromhost+0xadfec9be>
  c8:	56ff7537          	lui	a0,0x56ff7
  cc:	6df50513          	addi	a0,a0,1759 # 56ff76df <fromhost+0x56ff52df>
  d0:	ab7fc5b7          	lui	a1,0xab7fc
  d4:	b6f58593          	addi	a1,a1,-1169 # ab7fbb6f <fromhost+0xab7f976f>
  d8:	d5bfe637          	lui	a2,0xd5bfe
  dc:	db760613          	addi	a2,a2,-585 # d5bfddb7 <fromhost+0xd5bfb9b7>
  e0:	eadff6b7          	lui	a3,0xeadff
  e4:	edb68693          	addi	a3,a3,-293 # eadfeedb <fromhost+0xeadfcadb>
  e8:	f56ff737          	lui	a4,0xf56ff
  ec:	76d70713          	addi	a4,a4,1901 # f56ff76d <fromhost+0xf56fd36d>
  f0:	fab807b7          	lui	a5,0xfab80
  f4:	bb678793          	addi	a5,a5,-1098 # fab7fbb6 <fromhost+0xfab7d7b6>
  f8:	7d5c0837          	lui	a6,0x7d5c0
  fc:	ddb80813          	addi	a6,a6,-549 # 7d5bfddb <fromhost+0x7d5bd9db>
 100:	beae08b7          	lui	a7,0xbeae0
 104:	eed88893          	addi	a7,a7,-275 # beadfeed <fromhost+0xbeaddaed>
 108:	df570937          	lui	s2,0xdf570
 10c:	f7690913          	addi	s2,s2,-138 # df56ff76 <fromhost+0xdf56db76>
 110:	6fab89b7          	lui	s3,0x6fab8
 114:	fbb98993          	addi	s3,s3,-69 # 6fab7fbb <fromhost+0x6fab5bbb>
 118:	b7d5ca37          	lui	s4,0xb7d5c
 11c:	fdda0a13          	addi	s4,s4,-35 # b7d5bfdd <fromhost+0xb7d59bdd>
 120:	dbeaeab7          	lui	s5,0xdbeae
 124:	feea8a93          	addi	s5,s5,-18 # dbeadfee <fromhost+0xdbeabbee>
 128:	6df57b37          	lui	s6,0x6df57
 12c:	ff7b0b13          	addi	s6,s6,-9 # 6df56ff7 <fromhost+0x6df54bf7>
 130:	b6fabbb7          	lui	s7,0xb6fab
 134:	7fbb8b93          	addi	s7,s7,2043 # b6fab7fb <fromhost+0xb6fa93fb>
 138:	db7d6c37          	lui	s8,0xdb7d6
 13c:	bfdc0c13          	addi	s8,s8,-1027 # db7d5bfd <fromhost+0xdb7d37fd>
 140:	edbebcb7          	lui	s9,0xedbeb
 144:	dfec8c93          	addi	s9,s9,-514 # edbeadfe <fromhost+0xedbe89fe>
 148:	76df5d37          	lui	s10,0x76df5
 14c:	6ffd0d13          	addi	s10,s10,1791 # 76df56ff <fromhost+0x76df32ff>
 150:	bb6fbdb7          	lui	s11,0xbb6fb
 154:	b7fd8d93          	addi	s11,s11,-1153 # bb6fab7f <fromhost+0xbb6f877f>
 158:	ddb7de37          	lui	t3,0xddb7d
 15c:	5bfe0e13          	addi	t3,t3,1471 # ddb7d5bf <fromhost+0xddb7b1bf>
 160:	eedbfeb7          	lui	t4,0xeedbf
 164:	adfe8e93          	addi	t4,t4,-1313 # eedbeadf <fromhost+0xeedbc6df>
 168:	f76dff37          	lui	t5,0xf76df
 16c:	56ff0f13          	addi	t5,t5,1391 # f76df56f <fromhost+0xf76dd16f>
 170:	fbb70fb7          	lui	t6,0xfbb70
 174:	ab7f8f93          	addi	t6,t6,-1353 # fbb6fab7 <fromhost+0xfbb6d6b7>

00000178 <rvtest_code_begin>:
 178:	00002817          	auipc	a6,0x2
 17c:	e8880813          	addi	a6,a6,-376 # 2000 <begin_signature>

00000180 <inst_0>:
 180:	00100013          	li	zero,1
 184:	00100093          	li	ra,1
 188:	00100113          	li	sp,1
 18c:	00100193          	li	gp,1
 190:	00100213          	li	tp,1
 194:	00100293          	li	t0,1
 198:	00100313          	li	t1,1
 19c:	00100393          	li	t2,1
 1a0:	00100413          	li	s0,1
 1a4:	00100493          	li	s1,1
 1a8:	00100513          	li	a0,1
 1ac:	00100593          	li	a1,1
 1b0:	00100613          	li	a2,1
 1b4:	00100693          	li	a3,1
 1b8:	00100713          	li	a4,1
 1bc:	00100793          	li	a5,1
 1c0:	01f09093          	slli	ra,ra,0x1f
 1c4:	0000c463          	bltz	ra,1cc <inst_0+0x4c>
 1c8:	00000093          	li	ra,0
 1cc:	01f11113          	slli	sp,sp,0x1f
 1d0:	00014463          	bltz	sp,1d8 <inst_0+0x58>
 1d4:	00000113          	li	sp,0
 1d8:	01f19193          	slli	gp,gp,0x1f
 1dc:	0001c463          	bltz	gp,1e4 <inst_0+0x64>
 1e0:	00000193          	li	gp,0
 1e4:	01f21213          	slli	tp,tp,0x1f
 1e8:	00024463          	bltz	tp,1f0 <inst_0+0x70>
 1ec:	00000213          	li	tp,0
 1f0:	01f29293          	slli	t0,t0,0x1f
 1f4:	0002c463          	bltz	t0,1fc <inst_0+0x7c>
 1f8:	00000293          	li	t0,0
 1fc:	01f31313          	slli	t1,t1,0x1f
 200:	00034463          	bltz	t1,208 <inst_0+0x88>
 204:	00000313          	li	t1,0
 208:	01f39393          	slli	t2,t2,0x1f
 20c:	0003c463          	bltz	t2,214 <inst_0+0x94>
 210:	00000393          	li	t2,0
 214:	01f41413          	slli	s0,s0,0x1f
 218:	00044463          	bltz	s0,220 <inst_0+0xa0>
 21c:	00000413          	li	s0,0
 220:	01f49493          	slli	s1,s1,0x1f
 224:	0004c463          	bltz	s1,22c <inst_0+0xac>
 228:	00000493          	li	s1,0
 22c:	01f51513          	slli	a0,a0,0x1f
 230:	00054463          	bltz	a0,238 <inst_0+0xb8>
 234:	00000513          	li	a0,0
 238:	01f59593          	slli	a1,a1,0x1f
 23c:	0005c463          	bltz	a1,244 <inst_0+0xc4>
 240:	00000593          	li	a1,0
 244:	01f61613          	slli	a2,a2,0x1f
 248:	00064463          	bltz	a2,250 <inst_0+0xd0>
 24c:	00000613          	li	a2,0
 250:	01f69693          	slli	a3,a3,0x1f
 254:	0006c463          	bltz	a3,25c <inst_0+0xdc>
 258:	00000693          	li	a3,0
 25c:	01f71713          	slli	a4,a4,0x1f
 260:	00074463          	bltz	a4,268 <inst_0+0xe8>
 264:	00000713          	li	a4,0
 268:	01f79793          	slli	a5,a5,0x1f
 26c:	0007c463          	bltz	a5,274 <inst_0+0xf4>
 270:	00000793          	li	a5,0
 274:	00082023          	sw	zero,0(a6)
 278:	00182223          	sw	ra,4(a6)
 27c:	00282423          	sw	sp,8(a6)
 280:	00382623          	sw	gp,12(a6)
 284:	00482823          	sw	tp,16(a6)
 288:	00582a23          	sw	t0,20(a6)
 28c:	00682c23          	sw	t1,24(a6)
 290:	00782e23          	sw	t2,28(a6)
 294:	02882023          	sw	s0,32(a6)
 298:	02982223          	sw	s1,36(a6)
 29c:	02a82423          	sw	a0,40(a6)
 2a0:	02b82623          	sw	a1,44(a6)
 2a4:	02c82823          	sw	a2,48(a6)
 2a8:	02d82a23          	sw	a3,52(a6)
 2ac:	02e82c23          	sw	a4,56(a6)
 2b0:	02f82e23          	sw	a5,60(a6)
 2b4:	00002097          	auipc	ra,0x2
 2b8:	d8c08093          	addi	ra,ra,-628 # 2040 <test_A2_res>

000002bc <inst_1>:
 2bc:	00100813          	li	a6,1
 2c0:	00100893          	li	a7,1
 2c4:	00100913          	li	s2,1
 2c8:	00100993          	li	s3,1
 2cc:	00100a13          	li	s4,1
 2d0:	00100a93          	li	s5,1
 2d4:	00100b13          	li	s6,1
 2d8:	00100b93          	li	s7,1
 2dc:	00100c13          	li	s8,1
 2e0:	00100c93          	li	s9,1
 2e4:	00100d13          	li	s10,1
 2e8:	00100d93          	li	s11,1
 2ec:	00100e13          	li	t3,1
 2f0:	00100e93          	li	t4,1
 2f4:	00100f13          	li	t5,1
 2f8:	00100f93          	li	t6,1
 2fc:	01f81813          	slli	a6,a6,0x1f
 300:	00084463          	bltz	a6,308 <inst_1+0x4c>
 304:	00000813          	li	a6,0
 308:	01f89893          	slli	a7,a7,0x1f
 30c:	0008c463          	bltz	a7,314 <inst_1+0x58>
 310:	00000893          	li	a7,0
 314:	01f91913          	slli	s2,s2,0x1f
 318:	00094463          	bltz	s2,320 <inst_1+0x64>
 31c:	00000913          	li	s2,0
 320:	01f99993          	slli	s3,s3,0x1f
 324:	0009c463          	bltz	s3,32c <inst_1+0x70>
 328:	00000993          	li	s3,0
 32c:	01fa1a13          	slli	s4,s4,0x1f
 330:	000a4463          	bltz	s4,338 <inst_1+0x7c>
 334:	00000a13          	li	s4,0
 338:	01fa9a93          	slli	s5,s5,0x1f
 33c:	000ac463          	bltz	s5,344 <inst_1+0x88>
 340:	00000a93          	li	s5,0
 344:	01fb1b13          	slli	s6,s6,0x1f
 348:	000b4463          	bltz	s6,350 <inst_1+0x94>
 34c:	00000b13          	li	s6,0
 350:	01fb9b93          	slli	s7,s7,0x1f
 354:	000bc463          	bltz	s7,35c <inst_1+0xa0>
 358:	00000b93          	li	s7,0
 35c:	01fc1c13          	slli	s8,s8,0x1f
 360:	000c4463          	bltz	s8,368 <inst_1+0xac>
 364:	00000c13          	li	s8,0
 368:	01fc9c93          	slli	s9,s9,0x1f
 36c:	000cc463          	bltz	s9,374 <inst_1+0xb8>
 370:	00000c93          	li	s9,0
 374:	01fd1d13          	slli	s10,s10,0x1f
 378:	000d4463          	bltz	s10,380 <inst_1+0xc4>
 37c:	00000d13          	li	s10,0
 380:	01fd9d93          	slli	s11,s11,0x1f
 384:	000dc463          	bltz	s11,38c <inst_1+0xd0>
 388:	00000d93          	li	s11,0
 38c:	01fe1e13          	slli	t3,t3,0x1f
 390:	000e4463          	bltz	t3,398 <inst_1+0xdc>
 394:	00000e13          	li	t3,0
 398:	01fe9e93          	slli	t4,t4,0x1f
 39c:	000ec463          	bltz	t4,3a4 <inst_1+0xe8>
 3a0:	00000e93          	li	t4,0
 3a4:	01ff1f13          	slli	t5,t5,0x1f
 3a8:	000f4463          	bltz	t5,3b0 <inst_1+0xf4>
 3ac:	00000f13          	li	t5,0
 3b0:	01ff9f93          	slli	t6,t6,0x1f
 3b4:	000fc463          	bltz	t6,3bc <inst_1+0x100>
 3b8:	00000f93          	li	t6,0
 3bc:	0100a023          	sw	a6,0(ra)
 3c0:	0110a223          	sw	a7,4(ra)
 3c4:	0120a423          	sw	s2,8(ra)
 3c8:	0130a623          	sw	s3,12(ra)
 3cc:	0140a823          	sw	s4,16(ra)
 3d0:	0150aa23          	sw	s5,20(ra)
 3d4:	0160ac23          	sw	s6,24(ra)
 3d8:	0170ae23          	sw	s7,28(ra)
 3dc:	0380a023          	sw	s8,32(ra)
 3e0:	0390a223          	sw	s9,36(ra)
 3e4:	03a0a423          	sw	s10,40(ra)
 3e8:	03b0a623          	sw	s11,44(ra)
 3ec:	03c0a823          	sw	t3,48(ra)
 3f0:	03d0aa23          	sw	t4,52(ra)
 3f4:	03e0ac23          	sw	t5,56(ra)
 3f8:	03f0ae23          	sw	t6,60(ra)
 3fc:	0ff0000f          	fence
 400:	00000073          	ecall
 404:	00000013          	nop
 408:	00000013          	nop
 40c:	00000013          	nop

00000410 <rvtest_code_end>:
	...

Disassembly of section .tohost:

00002300 <tohost>:
	...

00002400 <fromhost>:
	...
