
/home/hassan/nucleusrv/imperas-riscv-tests/work/rv32i_m/I/JAL-01.elf:     file format elf32-littleriscv


Disassembly of section .text.init:

00000000 <rvtest_entry_point>:
       0:	0440006f          	j	44 <reset_vector>

00000004 <trap_vector>:
       4:	342022f3          	csrr	t0,mcause
       8:	00800313          	li	t1,8
       c:	02628663          	beq	t0,t1,38 <write_tohost>
      10:	00900313          	li	t1,9
      14:	02628263          	beq	t0,t1,38 <write_tohost>
      18:	00b00313          	li	t1,11
      1c:	00628e63          	beq	t0,t1,38 <write_tohost>
      20:	00000293          	li	t0,0
      24:	00028463          	beqz	t0,2c <trap_vector+0x28>
      28:	00028067          	jr	t0
      2c:	342022f3          	csrr	t0,mcause
      30:	0002d263          	bgez	t0,34 <handle_exception>

00000034 <handle_exception>:
      34:	5391e193          	ori	gp,gp,1337

00000038 <write_tohost>:
      38:	00002297          	auipc	t0,0x2
      3c:	4c32a423          	sw	gp,1224(t0) # 2500 <tohost>
      40:	ff9ff06f          	j	38 <write_tohost>

00000044 <reset_vector>:
      44:	00002537          	lui	a0,0x2
      48:	80050513          	addi	a0,a0,-2048 # 1800 <rvtest_code_end+0x490>
      4c:	30052073          	csrs	mstatus,a0
      50:	00000297          	auipc	t0,0x0
      54:	fb428293          	addi	t0,t0,-76 # 4 <trap_vector>
      58:	30529073          	csrw	mtvec,t0
      5c:	00000297          	auipc	t0,0x0
      60:	02428293          	addi	t0,t0,36 # 80 <rvtest_init>
      64:	34129073          	csrw	mepc,t0
      68:	f1402573          	csrr	a0,mhartid
      6c:	30200073          	mret
      70:	00000013          	nop
      74:	00000013          	nop
      78:	00000013          	nop
      7c:	00000013          	nop

00000080 <rvtest_init>:
      80:	feedc0b7          	lui	ra,0xfeedc
      84:	ead08093          	addi	ra,ra,-339 # feedbead <fromhost+0xfeed98ad>
      88:	ff76e137          	lui	sp,0xff76e
      8c:	f5610113          	addi	sp,sp,-170 # ff76df56 <fromhost+0xff76b956>
      90:	7fbb71b7          	lui	gp,0x7fbb7
      94:	fab18193          	addi	gp,gp,-85 # 7fbb6fab <fromhost+0x7fbb49ab>
      98:	bfddb237          	lui	tp,0xbfddb
      9c:	7d520213          	addi	tp,tp,2005 # bfddb7d5 <fromhost+0xbfdd91d5>
      a0:	00000297          	auipc	t0,0x0
      a4:	0d828293          	addi	t0,t0,216 # 178 <rvtest_code_begin>
      a8:	00002317          	auipc	t1,0x2
      ac:	f5830313          	addi	t1,t1,-168 # 2000 <rvtest_data_begin>
      b0:	b7fbb3b7          	lui	t2,0xb7fbb
      b4:	6fa38393          	addi	t2,t2,1786 # b7fbb6fa <fromhost+0xb7fb90fa>
      b8:	5bfde437          	lui	s0,0x5bfde
      bc:	b7d40413          	addi	s0,s0,-1155 # 5bfddb7d <fromhost+0x5bfdb57d>
      c0:	adfef4b7          	lui	s1,0xadfef
      c4:	dbe48493          	addi	s1,s1,-578 # adfeedbe <fromhost+0xadfec7be>
      c8:	56ff7537          	lui	a0,0x56ff7
      cc:	6df50513          	addi	a0,a0,1759 # 56ff76df <fromhost+0x56ff50df>
      d0:	ab7fc5b7          	lui	a1,0xab7fc
      d4:	b6f58593          	addi	a1,a1,-1169 # ab7fbb6f <fromhost+0xab7f956f>
      d8:	d5bfe637          	lui	a2,0xd5bfe
      dc:	db760613          	addi	a2,a2,-585 # d5bfddb7 <fromhost+0xd5bfb7b7>
      e0:	eadff6b7          	lui	a3,0xeadff
      e4:	edb68693          	addi	a3,a3,-293 # eadfeedb <fromhost+0xeadfc8db>
      e8:	f56ff737          	lui	a4,0xf56ff
      ec:	76d70713          	addi	a4,a4,1901 # f56ff76d <fromhost+0xf56fd16d>
      f0:	fab807b7          	lui	a5,0xfab80
      f4:	bb678793          	addi	a5,a5,-1098 # fab7fbb6 <fromhost+0xfab7d5b6>
      f8:	7d5c0837          	lui	a6,0x7d5c0
      fc:	ddb80813          	addi	a6,a6,-549 # 7d5bfddb <fromhost+0x7d5bd7db>
     100:	beae08b7          	lui	a7,0xbeae0
     104:	eed88893          	addi	a7,a7,-275 # beadfeed <fromhost+0xbeadd8ed>
     108:	df570937          	lui	s2,0xdf570
     10c:	f7690913          	addi	s2,s2,-138 # df56ff76 <fromhost+0xdf56d976>
     110:	6fab89b7          	lui	s3,0x6fab8
     114:	fbb98993          	addi	s3,s3,-69 # 6fab7fbb <fromhost+0x6fab59bb>
     118:	b7d5ca37          	lui	s4,0xb7d5c
     11c:	fdda0a13          	addi	s4,s4,-35 # b7d5bfdd <fromhost+0xb7d599dd>
     120:	dbeaeab7          	lui	s5,0xdbeae
     124:	feea8a93          	addi	s5,s5,-18 # dbeadfee <fromhost+0xdbeab9ee>
     128:	6df57b37          	lui	s6,0x6df57
     12c:	ff7b0b13          	addi	s6,s6,-9 # 6df56ff7 <fromhost+0x6df549f7>
     130:	b6fabbb7          	lui	s7,0xb6fab
     134:	7fbb8b93          	addi	s7,s7,2043 # b6fab7fb <fromhost+0xb6fa91fb>
     138:	db7d6c37          	lui	s8,0xdb7d6
     13c:	bfdc0c13          	addi	s8,s8,-1027 # db7d5bfd <fromhost+0xdb7d35fd>
     140:	edbebcb7          	lui	s9,0xedbeb
     144:	dfec8c93          	addi	s9,s9,-514 # edbeadfe <fromhost+0xedbe87fe>
     148:	76df5d37          	lui	s10,0x76df5
     14c:	6ffd0d13          	addi	s10,s10,1791 # 76df56ff <fromhost+0x76df30ff>
     150:	bb6fbdb7          	lui	s11,0xbb6fb
     154:	b7fd8d93          	addi	s11,s11,-1153 # bb6fab7f <fromhost+0xbb6f857f>
     158:	ddb7de37          	lui	t3,0xddb7d
     15c:	5bfe0e13          	addi	t3,t3,1471 # ddb7d5bf <fromhost+0xddb7afbf>
     160:	eedbfeb7          	lui	t4,0xeedbf
     164:	adfe8e93          	addi	t4,t4,-1313 # eedbeadf <fromhost+0xeedbc4df>
     168:	f76dff37          	lui	t5,0xf76df
     16c:	56ff0f13          	addi	t5,t5,1391 # f76df56f <fromhost+0xf76dcf6f>
     170:	fbb70fb7          	lui	t6,0xfbb70
     174:	ab7f8f93          	addi	t6,t6,-1353 # fbb6fab7 <fromhost+0xfbb6d4b7>

00000178 <rvtest_code_begin>:
     178:	00002097          	auipc	ra,0x2
     17c:	e9808093          	addi	ra,ra,-360 # 2010 <begin_signature>
     180:	0000d1b7          	lui	gp,0xd
     184:	ccc18193          	addi	gp,gp,-820 # cccc <fromhost+0xa6cc>
     188:	00c009ef          	jal	s3,194 <rvtest_code_begin+0x1c>
     18c:	000121b7          	lui	gp,0x12
     190:	3ab18193          	addi	gp,gp,939 # 123ab <fromhost+0xfdab>
     194:	0030a023          	sw	gp,0(ra)
     198:	0000d1b7          	lui	gp,0xd
     19c:	ccc18193          	addi	gp,gp,-820 # cccc <fromhost+0xa6cc>
     1a0:	00c00e6f          	jal	t3,1ac <rvtest_code_begin+0x34>
     1a4:	000121b7          	lui	gp,0x12
     1a8:	3ab18193          	addi	gp,gp,939 # 123ab <fromhost+0xfdab>
     1ac:	0030a223          	sw	gp,4(ra)
     1b0:	0080006f          	j	1b8 <rvtest_code_begin+0x40>
     1b4:	0180006f          	j	1cc <rvtest_code_begin+0x54>
     1b8:	0000d1b7          	lui	gp,0xd
     1bc:	ccc18193          	addi	gp,gp,-820 # cccc <fromhost+0xa6cc>
     1c0:	ff5fff6f          	jal	t5,1b4 <rvtest_code_begin+0x3c>
     1c4:	000121b7          	lui	gp,0x12
     1c8:	3ab18193          	addi	gp,gp,939 # 123ab <fromhost+0xfdab>
     1cc:	0030a423          	sw	gp,8(ra)
     1d0:	0000d1b7          	lui	gp,0xd
     1d4:	ccc18193          	addi	gp,gp,-820 # cccc <fromhost+0xa6cc>
     1d8:	00c00a6f          	jal	s4,1e4 <rvtest_code_begin+0x6c>
     1dc:	000121b7          	lui	gp,0x12
     1e0:	3ab18193          	addi	gp,gp,939 # 123ab <fromhost+0xfdab>
     1e4:	0030a623          	sw	gp,12(ra)
     1e8:	0000d1b7          	lui	gp,0xd
     1ec:	ccc18193          	addi	gp,gp,-820 # cccc <fromhost+0xa6cc>
     1f0:	00c0056f          	jal	a0,1fc <rvtest_code_begin+0x84>
     1f4:	000121b7          	lui	gp,0x12
     1f8:	3ab18193          	addi	gp,gp,939 # 123ab <fromhost+0xfdab>
     1fc:	0030a823          	sw	gp,16(ra)
     200:	00002097          	auipc	ra,0x2
     204:	e2408093          	addi	ra,ra,-476 # 2024 <signature_2_0>
     208:	0000d237          	lui	tp,0xd
     20c:	ccc20213          	addi	tp,tp,-820 # cccc <fromhost+0xa6cc>
     210:	00c0006f          	j	21c <rvtest_code_begin+0xa4>
     214:	00012237          	lui	tp,0x12
     218:	3ab20213          	addi	tp,tp,939 # 123ab <fromhost+0xfdab>
     21c:	0040a023          	sw	tp,0(ra)
     220:	0000d237          	lui	tp,0xd
     224:	ccc20213          	addi	tp,tp,-820 # cccc <fromhost+0xa6cc>
     228:	00c001ef          	jal	gp,234 <rvtest_code_begin+0xbc>
     22c:	00012237          	lui	tp,0x12
     230:	3ab20213          	addi	tp,tp,939 # 123ab <fromhost+0xfdab>
     234:	0040a223          	sw	tp,4(ra)
     238:	0080006f          	j	240 <rvtest_code_begin+0xc8>
     23c:	0180006f          	j	254 <rvtest_code_begin+0xdc>
     240:	0000d237          	lui	tp,0xd
     244:	ccc20213          	addi	tp,tp,-820 # cccc <fromhost+0xa6cc>
     248:	ff5fffef          	jal	t6,23c <rvtest_code_begin+0xc4>
     24c:	00012237          	lui	tp,0x12
     250:	3ab20213          	addi	tp,tp,939 # 123ab <fromhost+0xfdab>
     254:	0040a423          	sw	tp,8(ra)
     258:	0000d237          	lui	tp,0xd
     25c:	ccc20213          	addi	tp,tp,-820 # cccc <fromhost+0xa6cc>
     260:	00c00eef          	jal	t4,26c <rvtest_code_begin+0xf4>
     264:	00012237          	lui	tp,0x12
     268:	3ab20213          	addi	tp,tp,939 # 123ab <fromhost+0xfdab>
     26c:	0040a623          	sw	tp,12(ra)
     270:	0000d237          	lui	tp,0xd
     274:	ccc20213          	addi	tp,tp,-820 # cccc <fromhost+0xa6cc>
     278:	00c002ef          	jal	t0,284 <rvtest_code_begin+0x10c>
     27c:	00012237          	lui	tp,0x12
     280:	3ab20213          	addi	tp,tp,939 # 123ab <fromhost+0xfdab>
     284:	0040a823          	sw	tp,16(ra)
     288:	00002097          	auipc	ra,0x2
     28c:	db008093          	addi	ra,ra,-592 # 2038 <signature_3_0>
     290:	0000d1b7          	lui	gp,0xd
     294:	ccc18193          	addi	gp,gp,-820 # cccc <fromhost+0xa6cc>
     298:	00c0006f          	j	2a4 <rvtest_code_begin+0x12c>
     29c:	000121b7          	lui	gp,0x12
     2a0:	3ab18193          	addi	gp,gp,939 # 123ab <fromhost+0xfdab>
     2a4:	0030a023          	sw	gp,0(ra)
     2a8:	0000d1b7          	lui	gp,0xd
     2ac:	ccc18193          	addi	gp,gp,-820 # cccc <fromhost+0xa6cc>
     2b0:	00c006ef          	jal	a3,2bc <rvtest_code_begin+0x144>
     2b4:	000121b7          	lui	gp,0x12
     2b8:	3ab18193          	addi	gp,gp,939 # 123ab <fromhost+0xfdab>
     2bc:	0030a223          	sw	gp,4(ra)
     2c0:	0080006f          	j	2c8 <rvtest_code_begin+0x150>
     2c4:	0180006f          	j	2dc <rvtest_code_begin+0x164>
     2c8:	0000d1b7          	lui	gp,0xd
     2cc:	ccc18193          	addi	gp,gp,-820 # cccc <fromhost+0xa6cc>
     2d0:	ff5ff26f          	jal	tp,2c4 <rvtest_code_begin+0x14c>
     2d4:	000121b7          	lui	gp,0x12
     2d8:	3ab18193          	addi	gp,gp,939 # 123ab <fromhost+0xfdab>
     2dc:	0030a423          	sw	gp,8(ra)
     2e0:	0000d1b7          	lui	gp,0xd
     2e4:	ccc18193          	addi	gp,gp,-820 # cccc <fromhost+0xa6cc>
     2e8:	00c005ef          	jal	a1,2f4 <rvtest_code_begin+0x17c>
     2ec:	000121b7          	lui	gp,0x12
     2f0:	3ab18193          	addi	gp,gp,939 # 123ab <fromhost+0xfdab>
     2f4:	0030a623          	sw	gp,12(ra)
     2f8:	0000d1b7          	lui	gp,0xd
     2fc:	ccc18193          	addi	gp,gp,-820 # cccc <fromhost+0xa6cc>
     300:	00c00cef          	jal	s9,30c <rvtest_code_begin+0x194>
     304:	000121b7          	lui	gp,0x12
     308:	3ab18193          	addi	gp,gp,939 # 123ab <fromhost+0xfdab>
     30c:	0030a823          	sw	gp,16(ra)
     310:	00002097          	auipc	ra,0x2
     314:	d3c08093          	addi	ra,ra,-708 # 204c <signature_4_0>
     318:	0000d237          	lui	tp,0xd
     31c:	ccc20213          	addi	tp,tp,-820 # cccc <fromhost+0xa6cc>
     320:	00c0016f          	jal	sp,32c <rvtest_code_begin+0x1b4>
     324:	00012237          	lui	tp,0x12
     328:	3ab20213          	addi	tp,tp,939 # 123ab <fromhost+0xfdab>
     32c:	0040a023          	sw	tp,0(ra)
     330:	0000d237          	lui	tp,0xd
     334:	ccc20213          	addi	tp,tp,-820 # cccc <fromhost+0xa6cc>
     338:	00c0096f          	jal	s2,344 <rvtest_code_begin+0x1cc>
     33c:	00012237          	lui	tp,0x12
     340:	3ab20213          	addi	tp,tp,939 # 123ab <fromhost+0xfdab>
     344:	0040a223          	sw	tp,4(ra)
     348:	0080006f          	j	350 <rvtest_code_begin+0x1d8>
     34c:	0180006f          	j	364 <rvtest_code_begin+0x1ec>
     350:	0000d237          	lui	tp,0xd
     354:	ccc20213          	addi	tp,tp,-820 # cccc <fromhost+0xa6cc>
     358:	ff5ff96f          	jal	s2,34c <rvtest_code_begin+0x1d4>
     35c:	00012237          	lui	tp,0x12
     360:	3ab20213          	addi	tp,tp,939 # 123ab <fromhost+0xfdab>
     364:	0040a423          	sw	tp,8(ra)
     368:	0000d237          	lui	tp,0xd
     36c:	ccc20213          	addi	tp,tp,-820 # cccc <fromhost+0xa6cc>
     370:	00c003ef          	jal	t2,37c <rvtest_code_begin+0x204>
     374:	00012237          	lui	tp,0x12
     378:	3ab20213          	addi	tp,tp,939 # 123ab <fromhost+0xfdab>
     37c:	0040a623          	sw	tp,12(ra)
     380:	0000d237          	lui	tp,0xd
     384:	ccc20213          	addi	tp,tp,-820 # cccc <fromhost+0xa6cc>
     388:	00c004ef          	jal	s1,394 <rvtest_code_begin+0x21c>
     38c:	00012237          	lui	tp,0x12
     390:	3ab20213          	addi	tp,tp,939 # 123ab <fromhost+0xfdab>
     394:	0040a823          	sw	tp,16(ra)
     398:	00002097          	auipc	ra,0x2
     39c:	cc808093          	addi	ra,ra,-824 # 2060 <signature_5_0>
     3a0:	0000d1b7          	lui	gp,0xd
     3a4:	ccc18193          	addi	gp,gp,-820 # cccc <fromhost+0xa6cc>
     3a8:	00c00fef          	jal	t6,3b4 <rvtest_code_begin+0x23c>
     3ac:	000121b7          	lui	gp,0x12
     3b0:	3ab18193          	addi	gp,gp,939 # 123ab <fromhost+0xfdab>
     3b4:	0030a023          	sw	gp,0(ra)
     3b8:	0000d1b7          	lui	gp,0xd
     3bc:	ccc18193          	addi	gp,gp,-820 # cccc <fromhost+0xa6cc>
     3c0:	00c008ef          	jal	a7,3cc <rvtest_code_begin+0x254>
     3c4:	000121b7          	lui	gp,0x12
     3c8:	3ab18193          	addi	gp,gp,939 # 123ab <fromhost+0xfdab>
     3cc:	0030a223          	sw	gp,4(ra)
     3d0:	0080006f          	j	3d8 <rvtest_code_begin+0x260>
     3d4:	0180006f          	j	3ec <rvtest_code_begin+0x274>
     3d8:	0000d1b7          	lui	gp,0xd
     3dc:	ccc18193          	addi	gp,gp,-820 # cccc <fromhost+0xa6cc>
     3e0:	ff5ffbef          	jal	s7,3d4 <rvtest_code_begin+0x25c>
     3e4:	000121b7          	lui	gp,0x12
     3e8:	3ab18193          	addi	gp,gp,939 # 123ab <fromhost+0xfdab>
     3ec:	0030a423          	sw	gp,8(ra)
     3f0:	0000d1b7          	lui	gp,0xd
     3f4:	ccc18193          	addi	gp,gp,-820 # cccc <fromhost+0xa6cc>
     3f8:	00c00fef          	jal	t6,404 <rvtest_code_begin+0x28c>
     3fc:	000121b7          	lui	gp,0x12
     400:	3ab18193          	addi	gp,gp,939 # 123ab <fromhost+0xfdab>
     404:	0030a623          	sw	gp,12(ra)
     408:	0000d1b7          	lui	gp,0xd
     40c:	ccc18193          	addi	gp,gp,-820 # cccc <fromhost+0xa6cc>
     410:	00c00aef          	jal	s5,41c <rvtest_code_begin+0x2a4>
     414:	000121b7          	lui	gp,0x12
     418:	3ab18193          	addi	gp,gp,939 # 123ab <fromhost+0xfdab>
     41c:	0030a823          	sw	gp,16(ra)
     420:	00002097          	auipc	ra,0x2
     424:	c5408093          	addi	ra,ra,-940 # 2074 <signature_6_0>
     428:	0000d1b7          	lui	gp,0xd
     42c:	ccc18193          	addi	gp,gp,-820 # cccc <fromhost+0xa6cc>
     430:	00c0006f          	j	43c <rvtest_code_begin+0x2c4>
     434:	000121b7          	lui	gp,0x12
     438:	3ab18193          	addi	gp,gp,939 # 123ab <fromhost+0xfdab>
     43c:	0030a023          	sw	gp,0(ra)
     440:	0000d1b7          	lui	gp,0xd
     444:	ccc18193          	addi	gp,gp,-820 # cccc <fromhost+0xa6cc>
     448:	00c00f6f          	jal	t5,454 <rvtest_code_begin+0x2dc>
     44c:	000121b7          	lui	gp,0x12
     450:	3ab18193          	addi	gp,gp,939 # 123ab <fromhost+0xfdab>
     454:	0030a223          	sw	gp,4(ra)
     458:	0080006f          	j	460 <rvtest_code_begin+0x2e8>
     45c:	0180006f          	j	474 <rvtest_code_begin+0x2fc>
     460:	0000d1b7          	lui	gp,0xd
     464:	ccc18193          	addi	gp,gp,-820 # cccc <fromhost+0xa6cc>
     468:	ff5ff06f          	j	45c <rvtest_code_begin+0x2e4>
     46c:	000121b7          	lui	gp,0x12
     470:	3ab18193          	addi	gp,gp,939 # 123ab <fromhost+0xfdab>
     474:	0030a423          	sw	gp,8(ra)
     478:	0000d1b7          	lui	gp,0xd
     47c:	ccc18193          	addi	gp,gp,-820 # cccc <fromhost+0xa6cc>
     480:	00c008ef          	jal	a7,48c <rvtest_code_begin+0x314>
     484:	000121b7          	lui	gp,0x12
     488:	3ab18193          	addi	gp,gp,939 # 123ab <fromhost+0xfdab>
     48c:	0030a623          	sw	gp,12(ra)
     490:	0000d1b7          	lui	gp,0xd
     494:	ccc18193          	addi	gp,gp,-820 # cccc <fromhost+0xa6cc>
     498:	00c00fef          	jal	t6,4a4 <rvtest_code_begin+0x32c>
     49c:	000121b7          	lui	gp,0x12
     4a0:	3ab18193          	addi	gp,gp,939 # 123ab <fromhost+0xfdab>
     4a4:	0030a823          	sw	gp,16(ra)
     4a8:	00002097          	auipc	ra,0x2
     4ac:	be008093          	addi	ra,ra,-1056 # 2088 <signature_7_0>
     4b0:	0000d237          	lui	tp,0xd
     4b4:	ccc20213          	addi	tp,tp,-820 # cccc <fromhost+0xa6cc>
     4b8:	00c0036f          	jal	t1,4c4 <rvtest_code_begin+0x34c>
     4bc:	00012237          	lui	tp,0x12
     4c0:	3ab20213          	addi	tp,tp,939 # 123ab <fromhost+0xfdab>
     4c4:	0040a023          	sw	tp,0(ra)
     4c8:	0000d237          	lui	tp,0xd
     4cc:	ccc20213          	addi	tp,tp,-820 # cccc <fromhost+0xa6cc>
     4d0:	00c005ef          	jal	a1,4dc <rvtest_code_begin+0x364>
     4d4:	00012237          	lui	tp,0x12
     4d8:	3ab20213          	addi	tp,tp,939 # 123ab <fromhost+0xfdab>
     4dc:	0040a223          	sw	tp,4(ra)
     4e0:	0080006f          	j	4e8 <rvtest_code_begin+0x370>
     4e4:	0180006f          	j	4fc <rvtest_code_begin+0x384>
     4e8:	0000d237          	lui	tp,0xd
     4ec:	ccc20213          	addi	tp,tp,-820 # cccc <fromhost+0xa6cc>
     4f0:	ff5ffb6f          	jal	s6,4e4 <rvtest_code_begin+0x36c>
     4f4:	00012237          	lui	tp,0x12
     4f8:	3ab20213          	addi	tp,tp,939 # 123ab <fromhost+0xfdab>
     4fc:	0040a423          	sw	tp,8(ra)
     500:	0000d237          	lui	tp,0xd
     504:	ccc20213          	addi	tp,tp,-820 # cccc <fromhost+0xa6cc>
     508:	00c004ef          	jal	s1,514 <rvtest_code_begin+0x39c>
     50c:	00012237          	lui	tp,0x12
     510:	3ab20213          	addi	tp,tp,939 # 123ab <fromhost+0xfdab>
     514:	0040a623          	sw	tp,12(ra)
     518:	0000d237          	lui	tp,0xd
     51c:	ccc20213          	addi	tp,tp,-820 # cccc <fromhost+0xa6cc>
     520:	00c0016f          	jal	sp,52c <rvtest_code_begin+0x3b4>
     524:	00012237          	lui	tp,0x12
     528:	3ab20213          	addi	tp,tp,939 # 123ab <fromhost+0xfdab>
     52c:	0040a823          	sw	tp,16(ra)
     530:	00002097          	auipc	ra,0x2
     534:	b6c08093          	addi	ra,ra,-1172 # 209c <signature_8_0>
     538:	0000d237          	lui	tp,0xd
     53c:	ccc20213          	addi	tp,tp,-820 # cccc <fromhost+0xa6cc>
     540:	00c003ef          	jal	t2,54c <rvtest_code_begin+0x3d4>
     544:	00012237          	lui	tp,0x12
     548:	3ab20213          	addi	tp,tp,939 # 123ab <fromhost+0xfdab>
     54c:	0040a023          	sw	tp,0(ra)
     550:	0000d237          	lui	tp,0xd
     554:	ccc20213          	addi	tp,tp,-820 # cccc <fromhost+0xa6cc>
     558:	00c006ef          	jal	a3,564 <rvtest_code_begin+0x3ec>
     55c:	00012237          	lui	tp,0x12
     560:	3ab20213          	addi	tp,tp,939 # 123ab <fromhost+0xfdab>
     564:	0040a223          	sw	tp,4(ra)
     568:	0080006f          	j	570 <rvtest_code_begin+0x3f8>
     56c:	0180006f          	j	584 <rvtest_code_begin+0x40c>
     570:	0000d237          	lui	tp,0xd
     574:	ccc20213          	addi	tp,tp,-820 # cccc <fromhost+0xa6cc>
     578:	ff5ff3ef          	jal	t2,56c <rvtest_code_begin+0x3f4>
     57c:	00012237          	lui	tp,0x12
     580:	3ab20213          	addi	tp,tp,939 # 123ab <fromhost+0xfdab>
     584:	0040a423          	sw	tp,8(ra)
     588:	0000d237          	lui	tp,0xd
     58c:	ccc20213          	addi	tp,tp,-820 # cccc <fromhost+0xa6cc>
     590:	00c001ef          	jal	gp,59c <rvtest_code_begin+0x424>
     594:	00012237          	lui	tp,0x12
     598:	3ab20213          	addi	tp,tp,939 # 123ab <fromhost+0xfdab>
     59c:	0040a623          	sw	tp,12(ra)
     5a0:	0000d237          	lui	tp,0xd
     5a4:	ccc20213          	addi	tp,tp,-820 # cccc <fromhost+0xa6cc>
     5a8:	00c006ef          	jal	a3,5b4 <rvtest_code_begin+0x43c>
     5ac:	00012237          	lui	tp,0x12
     5b0:	3ab20213          	addi	tp,tp,939 # 123ab <fromhost+0xfdab>
     5b4:	0040a823          	sw	tp,16(ra)
     5b8:	00002297          	auipc	t0,0x2
     5bc:	af828293          	addi	t0,t0,-1288 # 20b0 <signature_9_0>
     5c0:	0000d3b7          	lui	t2,0xd
     5c4:	ccc38393          	addi	t2,t2,-820 # cccc <fromhost+0xa6cc>
     5c8:	00c000ef          	jal	ra,5d4 <rvtest_code_begin+0x45c>
     5cc:	000123b7          	lui	t2,0x12
     5d0:	3ab38393          	addi	t2,t2,939 # 123ab <fromhost+0xfdab>
     5d4:	0072a023          	sw	t2,0(t0)
     5d8:	0000d3b7          	lui	t2,0xd
     5dc:	ccc38393          	addi	t2,t2,-820 # cccc <fromhost+0xa6cc>
     5e0:	00c000ef          	jal	ra,5ec <rvtest_code_begin+0x474>
     5e4:	000123b7          	lui	t2,0x12
     5e8:	3ab38393          	addi	t2,t2,939 # 123ab <fromhost+0xfdab>
     5ec:	0072a223          	sw	t2,4(t0)
     5f0:	0080006f          	j	5f8 <rvtest_code_begin+0x480>
     5f4:	0180006f          	j	60c <rvtest_code_begin+0x494>
     5f8:	0000d3b7          	lui	t2,0xd
     5fc:	ccc38393          	addi	t2,t2,-820 # cccc <fromhost+0xa6cc>
     600:	ff5ff16f          	jal	sp,5f4 <rvtest_code_begin+0x47c>
     604:	000123b7          	lui	t2,0x12
     608:	3ab38393          	addi	t2,t2,939 # 123ab <fromhost+0xfdab>
     60c:	0072a423          	sw	t2,8(t0)
     610:	0000d3b7          	lui	t2,0xd
     614:	ccc38393          	addi	t2,t2,-820 # cccc <fromhost+0xa6cc>
     618:	00c001ef          	jal	gp,624 <rvtest_code_begin+0x4ac>
     61c:	000123b7          	lui	t2,0x12
     620:	3ab38393          	addi	t2,t2,939 # 123ab <fromhost+0xfdab>
     624:	0072a623          	sw	t2,12(t0)
     628:	0000d3b7          	lui	t2,0xd
     62c:	ccc38393          	addi	t2,t2,-820 # cccc <fromhost+0xa6cc>
     630:	00c0026f          	jal	tp,63c <rvtest_code_begin+0x4c4>
     634:	000123b7          	lui	t2,0x12
     638:	3ab38393          	addi	t2,t2,939 # 123ab <fromhost+0xfdab>
     63c:	0072a823          	sw	t2,16(t0)
     640:	00002097          	auipc	ra,0x2
     644:	a8408093          	addi	ra,ra,-1404 # 20c4 <signature_10_0>
     648:	0000d1b7          	lui	gp,0xd
     64c:	ccc18193          	addi	gp,gp,-820 # cccc <fromhost+0xa6cc>
     650:	00c002ef          	jal	t0,65c <rvtest_code_begin+0x4e4>
     654:	000121b7          	lui	gp,0x12
     658:	3ab18193          	addi	gp,gp,939 # 123ab <fromhost+0xfdab>
     65c:	0030a023          	sw	gp,0(ra)
     660:	0000d1b7          	lui	gp,0xd
     664:	ccc18193          	addi	gp,gp,-820 # cccc <fromhost+0xa6cc>
     668:	00c0036f          	jal	t1,674 <rvtest_code_begin+0x4fc>
     66c:	000121b7          	lui	gp,0x12
     670:	3ab18193          	addi	gp,gp,939 # 123ab <fromhost+0xfdab>
     674:	0030a223          	sw	gp,4(ra)
     678:	0080006f          	j	680 <rvtest_code_begin+0x508>
     67c:	0180006f          	j	694 <rvtest_code_begin+0x51c>
     680:	0000d1b7          	lui	gp,0xd
     684:	ccc18193          	addi	gp,gp,-820 # cccc <fromhost+0xa6cc>
     688:	ff5ff3ef          	jal	t2,67c <rvtest_code_begin+0x504>
     68c:	000121b7          	lui	gp,0x12
     690:	3ab18193          	addi	gp,gp,939 # 123ab <fromhost+0xfdab>
     694:	0030a423          	sw	gp,8(ra)
     698:	0000d1b7          	lui	gp,0xd
     69c:	ccc18193          	addi	gp,gp,-820 # cccc <fromhost+0xa6cc>
     6a0:	00c0046f          	jal	s0,6ac <rvtest_code_begin+0x534>
     6a4:	000121b7          	lui	gp,0x12
     6a8:	3ab18193          	addi	gp,gp,939 # 123ab <fromhost+0xfdab>
     6ac:	0030a623          	sw	gp,12(ra)
     6b0:	0000d1b7          	lui	gp,0xd
     6b4:	ccc18193          	addi	gp,gp,-820 # cccc <fromhost+0xa6cc>
     6b8:	00c004ef          	jal	s1,6c4 <rvtest_code_begin+0x54c>
     6bc:	000121b7          	lui	gp,0x12
     6c0:	3ab18193          	addi	gp,gp,939 # 123ab <fromhost+0xfdab>
     6c4:	0030a823          	sw	gp,16(ra)
     6c8:	00002097          	auipc	ra,0x2
     6cc:	a1008093          	addi	ra,ra,-1520 # 20d8 <signature_11_0>
     6d0:	0000d1b7          	lui	gp,0xd
     6d4:	ccc18193          	addi	gp,gp,-820 # cccc <fromhost+0xa6cc>
     6d8:	00c0056f          	jal	a0,6e4 <rvtest_code_begin+0x56c>
     6dc:	000121b7          	lui	gp,0x12
     6e0:	3ab18193          	addi	gp,gp,939 # 123ab <fromhost+0xfdab>
     6e4:	0030a023          	sw	gp,0(ra)
     6e8:	0000d1b7          	lui	gp,0xd
     6ec:	ccc18193          	addi	gp,gp,-820 # cccc <fromhost+0xa6cc>
     6f0:	00c005ef          	jal	a1,6fc <rvtest_code_begin+0x584>
     6f4:	000121b7          	lui	gp,0x12
     6f8:	3ab18193          	addi	gp,gp,939 # 123ab <fromhost+0xfdab>
     6fc:	0030a223          	sw	gp,4(ra)
     700:	0080006f          	j	708 <rvtest_code_begin+0x590>
     704:	0180006f          	j	71c <rvtest_code_begin+0x5a4>
     708:	0000d1b7          	lui	gp,0xd
     70c:	ccc18193          	addi	gp,gp,-820 # cccc <fromhost+0xa6cc>
     710:	ff5ff66f          	jal	a2,704 <rvtest_code_begin+0x58c>
     714:	000121b7          	lui	gp,0x12
     718:	3ab18193          	addi	gp,gp,939 # 123ab <fromhost+0xfdab>
     71c:	0030a423          	sw	gp,8(ra)
     720:	0000d1b7          	lui	gp,0xd
     724:	ccc18193          	addi	gp,gp,-820 # cccc <fromhost+0xa6cc>
     728:	00c006ef          	jal	a3,734 <rvtest_code_begin+0x5bc>
     72c:	000121b7          	lui	gp,0x12
     730:	3ab18193          	addi	gp,gp,939 # 123ab <fromhost+0xfdab>
     734:	0030a623          	sw	gp,12(ra)
     738:	0000d1b7          	lui	gp,0xd
     73c:	ccc18193          	addi	gp,gp,-820 # cccc <fromhost+0xa6cc>
     740:	00c0076f          	jal	a4,74c <rvtest_code_begin+0x5d4>
     744:	000121b7          	lui	gp,0x12
     748:	3ab18193          	addi	gp,gp,939 # 123ab <fromhost+0xfdab>
     74c:	0030a823          	sw	gp,16(ra)
     750:	00002097          	auipc	ra,0x2
     754:	99c08093          	addi	ra,ra,-1636 # 20ec <signature_12_0>
     758:	0000d1b7          	lui	gp,0xd
     75c:	ccc18193          	addi	gp,gp,-820 # cccc <fromhost+0xa6cc>
     760:	00c007ef          	jal	a5,76c <rvtest_code_begin+0x5f4>
     764:	000121b7          	lui	gp,0x12
     768:	3ab18193          	addi	gp,gp,939 # 123ab <fromhost+0xfdab>
     76c:	0030a023          	sw	gp,0(ra)
     770:	0000d1b7          	lui	gp,0xd
     774:	ccc18193          	addi	gp,gp,-820 # cccc <fromhost+0xa6cc>
     778:	00c0086f          	jal	a6,784 <rvtest_code_begin+0x60c>
     77c:	000121b7          	lui	gp,0x12
     780:	3ab18193          	addi	gp,gp,939 # 123ab <fromhost+0xfdab>
     784:	0030a223          	sw	gp,4(ra)
     788:	0080006f          	j	790 <rvtest_code_begin+0x618>
     78c:	0180006f          	j	7a4 <rvtest_code_begin+0x62c>
     790:	0000d1b7          	lui	gp,0xd
     794:	ccc18193          	addi	gp,gp,-820 # cccc <fromhost+0xa6cc>
     798:	ff5ff8ef          	jal	a7,78c <rvtest_code_begin+0x614>
     79c:	000121b7          	lui	gp,0x12
     7a0:	3ab18193          	addi	gp,gp,939 # 123ab <fromhost+0xfdab>
     7a4:	0030a423          	sw	gp,8(ra)
     7a8:	0000d1b7          	lui	gp,0xd
     7ac:	ccc18193          	addi	gp,gp,-820 # cccc <fromhost+0xa6cc>
     7b0:	00c0096f          	jal	s2,7bc <rvtest_code_begin+0x644>
     7b4:	000121b7          	lui	gp,0x12
     7b8:	3ab18193          	addi	gp,gp,939 # 123ab <fromhost+0xfdab>
     7bc:	0030a623          	sw	gp,12(ra)
     7c0:	0000d1b7          	lui	gp,0xd
     7c4:	ccc18193          	addi	gp,gp,-820 # cccc <fromhost+0xa6cc>
     7c8:	00c009ef          	jal	s3,7d4 <rvtest_code_begin+0x65c>
     7cc:	000121b7          	lui	gp,0x12
     7d0:	3ab18193          	addi	gp,gp,939 # 123ab <fromhost+0xfdab>
     7d4:	0030a823          	sw	gp,16(ra)
     7d8:	00002097          	auipc	ra,0x2
     7dc:	92808093          	addi	ra,ra,-1752 # 2100 <signature_13_0>
     7e0:	0000d1b7          	lui	gp,0xd
     7e4:	ccc18193          	addi	gp,gp,-820 # cccc <fromhost+0xa6cc>
     7e8:	00c00a6f          	jal	s4,7f4 <rvtest_code_begin+0x67c>
     7ec:	000121b7          	lui	gp,0x12
     7f0:	3ab18193          	addi	gp,gp,939 # 123ab <fromhost+0xfdab>
     7f4:	0030a023          	sw	gp,0(ra)
     7f8:	0000d1b7          	lui	gp,0xd
     7fc:	ccc18193          	addi	gp,gp,-820 # cccc <fromhost+0xa6cc>
     800:	00c00aef          	jal	s5,80c <rvtest_code_begin+0x694>
     804:	000121b7          	lui	gp,0x12
     808:	3ab18193          	addi	gp,gp,939 # 123ab <fromhost+0xfdab>
     80c:	0030a223          	sw	gp,4(ra)
     810:	0080006f          	j	818 <rvtest_code_begin+0x6a0>
     814:	0180006f          	j	82c <rvtest_code_begin+0x6b4>
     818:	0000d1b7          	lui	gp,0xd
     81c:	ccc18193          	addi	gp,gp,-820 # cccc <fromhost+0xa6cc>
     820:	ff5ffb6f          	jal	s6,814 <rvtest_code_begin+0x69c>
     824:	000121b7          	lui	gp,0x12
     828:	3ab18193          	addi	gp,gp,939 # 123ab <fromhost+0xfdab>
     82c:	0030a423          	sw	gp,8(ra)
     830:	0000d1b7          	lui	gp,0xd
     834:	ccc18193          	addi	gp,gp,-820 # cccc <fromhost+0xa6cc>
     838:	00c00bef          	jal	s7,844 <rvtest_code_begin+0x6cc>
     83c:	000121b7          	lui	gp,0x12
     840:	3ab18193          	addi	gp,gp,939 # 123ab <fromhost+0xfdab>
     844:	0030a623          	sw	gp,12(ra)
     848:	0000d1b7          	lui	gp,0xd
     84c:	ccc18193          	addi	gp,gp,-820 # cccc <fromhost+0xa6cc>
     850:	00c00c6f          	jal	s8,85c <rvtest_code_begin+0x6e4>
     854:	000121b7          	lui	gp,0x12
     858:	3ab18193          	addi	gp,gp,939 # 123ab <fromhost+0xfdab>
     85c:	0030a823          	sw	gp,16(ra)
     860:	00002097          	auipc	ra,0x2
     864:	8b408093          	addi	ra,ra,-1868 # 2114 <signature_14_0>
     868:	0000d1b7          	lui	gp,0xd
     86c:	ccc18193          	addi	gp,gp,-820 # cccc <fromhost+0xa6cc>
     870:	00c00cef          	jal	s9,87c <rvtest_code_begin+0x704>
     874:	000121b7          	lui	gp,0x12
     878:	3ab18193          	addi	gp,gp,939 # 123ab <fromhost+0xfdab>
     87c:	0030a023          	sw	gp,0(ra)
     880:	0000d1b7          	lui	gp,0xd
     884:	ccc18193          	addi	gp,gp,-820 # cccc <fromhost+0xa6cc>
     888:	00c00d6f          	jal	s10,894 <rvtest_code_begin+0x71c>
     88c:	000121b7          	lui	gp,0x12
     890:	3ab18193          	addi	gp,gp,939 # 123ab <fromhost+0xfdab>
     894:	0030a223          	sw	gp,4(ra)
     898:	0080006f          	j	8a0 <rvtest_code_begin+0x728>
     89c:	0180006f          	j	8b4 <rvtest_code_begin+0x73c>
     8a0:	0000d1b7          	lui	gp,0xd
     8a4:	ccc18193          	addi	gp,gp,-820 # cccc <fromhost+0xa6cc>
     8a8:	ff5ffdef          	jal	s11,89c <rvtest_code_begin+0x724>
     8ac:	000121b7          	lui	gp,0x12
     8b0:	3ab18193          	addi	gp,gp,939 # 123ab <fromhost+0xfdab>
     8b4:	0030a423          	sw	gp,8(ra)
     8b8:	0000d1b7          	lui	gp,0xd
     8bc:	ccc18193          	addi	gp,gp,-820 # cccc <fromhost+0xa6cc>
     8c0:	00c00e6f          	jal	t3,8cc <rvtest_code_begin+0x754>
     8c4:	000121b7          	lui	gp,0x12
     8c8:	3ab18193          	addi	gp,gp,939 # 123ab <fromhost+0xfdab>
     8cc:	0030a623          	sw	gp,12(ra)
     8d0:	0000d1b7          	lui	gp,0xd
     8d4:	ccc18193          	addi	gp,gp,-820 # cccc <fromhost+0xa6cc>
     8d8:	00c00eef          	jal	t4,8e4 <rvtest_code_begin+0x76c>
     8dc:	000121b7          	lui	gp,0x12
     8e0:	3ab18193          	addi	gp,gp,939 # 123ab <fromhost+0xfdab>
     8e4:	0030a823          	sw	gp,16(ra)
     8e8:	00002197          	auipc	gp,0x2
     8ec:	84018193          	addi	gp,gp,-1984 # 2128 <signature_15_0>
     8f0:	0000d2b7          	lui	t0,0xd
     8f4:	ccc28293          	addi	t0,t0,-820 # cccc <fromhost+0xa6cc>
     8f8:	00c00f6f          	jal	t5,904 <rvtest_code_begin+0x78c>
     8fc:	000122b7          	lui	t0,0x12
     900:	3ab28293          	addi	t0,t0,939 # 123ab <fromhost+0xfdab>
     904:	0051a023          	sw	t0,0(gp)
     908:	0000d2b7          	lui	t0,0xd
     90c:	ccc28293          	addi	t0,t0,-820 # cccc <fromhost+0xa6cc>
     910:	00c00fef          	jal	t6,91c <rvtest_code_begin+0x7a4>
     914:	000122b7          	lui	t0,0x12
     918:	3ab28293          	addi	t0,t0,939 # 123ab <fromhost+0xfdab>
     91c:	0051a223          	sw	t0,4(gp)
     920:	0080006f          	j	928 <rvtest_code_begin+0x7b0>
     924:	0180006f          	j	93c <rvtest_code_begin+0x7c4>
     928:	0000d2b7          	lui	t0,0xd
     92c:	ccc28293          	addi	t0,t0,-820 # cccc <fromhost+0xa6cc>
     930:	ff5ff0ef          	jal	ra,924 <rvtest_code_begin+0x7ac>
     934:	000122b7          	lui	t0,0x12
     938:	3ab28293          	addi	t0,t0,939 # 123ab <fromhost+0xfdab>
     93c:	0051a423          	sw	t0,8(gp)
     940:	0000d2b7          	lui	t0,0xd
     944:	ccc28293          	addi	t0,t0,-820 # cccc <fromhost+0xa6cc>
     948:	00c000ef          	jal	ra,954 <rvtest_code_begin+0x7dc>
     94c:	000122b7          	lui	t0,0x12
     950:	3ab28293          	addi	t0,t0,939 # 123ab <fromhost+0xfdab>
     954:	0051a623          	sw	t0,12(gp)
     958:	0000d2b7          	lui	t0,0xd
     95c:	ccc28293          	addi	t0,t0,-820 # cccc <fromhost+0xa6cc>
     960:	00c0016f          	jal	sp,96c <rvtest_code_begin+0x7f4>
     964:	000122b7          	lui	t0,0x12
     968:	3ab28293          	addi	t0,t0,939 # 123ab <fromhost+0xfdab>
     96c:	0051a823          	sw	t0,16(gp)
     970:	00001097          	auipc	ra,0x1
     974:	7cc08093          	addi	ra,ra,1996 # 213c <signature_16_0>
     978:	0000d437          	lui	s0,0xd
     97c:	ccc40413          	addi	s0,s0,-820 # cccc <fromhost+0xa6cc>
     980:	00c001ef          	jal	gp,98c <rvtest_code_begin+0x814>
     984:	00012437          	lui	s0,0x12
     988:	3ab40413          	addi	s0,s0,939 # 123ab <fromhost+0xfdab>
     98c:	0080a023          	sw	s0,0(ra)
     990:	0000d437          	lui	s0,0xd
     994:	ccc40413          	addi	s0,s0,-820 # cccc <fromhost+0xa6cc>
     998:	00c0026f          	jal	tp,9a4 <rvtest_code_begin+0x82c>
     99c:	00012437          	lui	s0,0x12
     9a0:	3ab40413          	addi	s0,s0,939 # 123ab <fromhost+0xfdab>
     9a4:	0080a223          	sw	s0,4(ra)
     9a8:	0080006f          	j	9b0 <rvtest_code_begin+0x838>
     9ac:	0180006f          	j	9c4 <rvtest_code_begin+0x84c>
     9b0:	0000d437          	lui	s0,0xd
     9b4:	ccc40413          	addi	s0,s0,-820 # cccc <fromhost+0xa6cc>
     9b8:	ff5ff2ef          	jal	t0,9ac <rvtest_code_begin+0x834>
     9bc:	00012437          	lui	s0,0x12
     9c0:	3ab40413          	addi	s0,s0,939 # 123ab <fromhost+0xfdab>
     9c4:	0080a423          	sw	s0,8(ra)
     9c8:	0000d437          	lui	s0,0xd
     9cc:	ccc40413          	addi	s0,s0,-820 # cccc <fromhost+0xa6cc>
     9d0:	00c0036f          	jal	t1,9dc <rvtest_code_begin+0x864>
     9d4:	00012437          	lui	s0,0x12
     9d8:	3ab40413          	addi	s0,s0,939 # 123ab <fromhost+0xfdab>
     9dc:	0080a623          	sw	s0,12(ra)
     9e0:	0000d437          	lui	s0,0xd
     9e4:	ccc40413          	addi	s0,s0,-820 # cccc <fromhost+0xa6cc>
     9e8:	00c003ef          	jal	t2,9f4 <rvtest_code_begin+0x87c>
     9ec:	00012437          	lui	s0,0x12
     9f0:	3ab40413          	addi	s0,s0,939 # 123ab <fromhost+0xfdab>
     9f4:	0080a823          	sw	s0,16(ra)
     9f8:	00001097          	auipc	ra,0x1
     9fc:	75808093          	addi	ra,ra,1880 # 2150 <signature_17_0>
     a00:	0000d1b7          	lui	gp,0xd
     a04:	ccc18193          	addi	gp,gp,-820 # cccc <fromhost+0xa6cc>
     a08:	00c0046f          	jal	s0,a14 <rvtest_code_begin+0x89c>
     a0c:	000121b7          	lui	gp,0x12
     a10:	3ab18193          	addi	gp,gp,939 # 123ab <fromhost+0xfdab>
     a14:	0030a023          	sw	gp,0(ra)
     a18:	0000d1b7          	lui	gp,0xd
     a1c:	ccc18193          	addi	gp,gp,-820 # cccc <fromhost+0xa6cc>
     a20:	00c004ef          	jal	s1,a2c <rvtest_code_begin+0x8b4>
     a24:	000121b7          	lui	gp,0x12
     a28:	3ab18193          	addi	gp,gp,939 # 123ab <fromhost+0xfdab>
     a2c:	0030a223          	sw	gp,4(ra)
     a30:	0080006f          	j	a38 <rvtest_code_begin+0x8c0>
     a34:	0180006f          	j	a4c <rvtest_code_begin+0x8d4>
     a38:	0000d1b7          	lui	gp,0xd
     a3c:	ccc18193          	addi	gp,gp,-820 # cccc <fromhost+0xa6cc>
     a40:	ff5ff56f          	jal	a0,a34 <rvtest_code_begin+0x8bc>
     a44:	000121b7          	lui	gp,0x12
     a48:	3ab18193          	addi	gp,gp,939 # 123ab <fromhost+0xfdab>
     a4c:	0030a423          	sw	gp,8(ra)
     a50:	0000d1b7          	lui	gp,0xd
     a54:	ccc18193          	addi	gp,gp,-820 # cccc <fromhost+0xa6cc>
     a58:	00c005ef          	jal	a1,a64 <rvtest_code_begin+0x8ec>
     a5c:	000121b7          	lui	gp,0x12
     a60:	3ab18193          	addi	gp,gp,939 # 123ab <fromhost+0xfdab>
     a64:	0030a623          	sw	gp,12(ra)
     a68:	0000d1b7          	lui	gp,0xd
     a6c:	ccc18193          	addi	gp,gp,-820 # cccc <fromhost+0xa6cc>
     a70:	00c0066f          	jal	a2,a7c <rvtest_code_begin+0x904>
     a74:	000121b7          	lui	gp,0x12
     a78:	3ab18193          	addi	gp,gp,939 # 123ab <fromhost+0xfdab>
     a7c:	0030a823          	sw	gp,16(ra)
     a80:	00001097          	auipc	ra,0x1
     a84:	6e408093          	addi	ra,ra,1764 # 2164 <signature_18_0>
     a88:	0000d1b7          	lui	gp,0xd
     a8c:	ccc18193          	addi	gp,gp,-820 # cccc <fromhost+0xa6cc>
     a90:	00c006ef          	jal	a3,a9c <rvtest_code_begin+0x924>
     a94:	000121b7          	lui	gp,0x12
     a98:	3ab18193          	addi	gp,gp,939 # 123ab <fromhost+0xfdab>
     a9c:	0030a023          	sw	gp,0(ra)
     aa0:	0000d1b7          	lui	gp,0xd
     aa4:	ccc18193          	addi	gp,gp,-820 # cccc <fromhost+0xa6cc>
     aa8:	00c0076f          	jal	a4,ab4 <rvtest_code_begin+0x93c>
     aac:	000121b7          	lui	gp,0x12
     ab0:	3ab18193          	addi	gp,gp,939 # 123ab <fromhost+0xfdab>
     ab4:	0030a223          	sw	gp,4(ra)
     ab8:	0080006f          	j	ac0 <rvtest_code_begin+0x948>
     abc:	0180006f          	j	ad4 <rvtest_code_begin+0x95c>
     ac0:	0000d1b7          	lui	gp,0xd
     ac4:	ccc18193          	addi	gp,gp,-820 # cccc <fromhost+0xa6cc>
     ac8:	ff5ff7ef          	jal	a5,abc <rvtest_code_begin+0x944>
     acc:	000121b7          	lui	gp,0x12
     ad0:	3ab18193          	addi	gp,gp,939 # 123ab <fromhost+0xfdab>
     ad4:	0030a423          	sw	gp,8(ra)
     ad8:	0000d1b7          	lui	gp,0xd
     adc:	ccc18193          	addi	gp,gp,-820 # cccc <fromhost+0xa6cc>
     ae0:	00c0086f          	jal	a6,aec <rvtest_code_begin+0x974>
     ae4:	000121b7          	lui	gp,0x12
     ae8:	3ab18193          	addi	gp,gp,939 # 123ab <fromhost+0xfdab>
     aec:	0030a623          	sw	gp,12(ra)
     af0:	0000d1b7          	lui	gp,0xd
     af4:	ccc18193          	addi	gp,gp,-820 # cccc <fromhost+0xa6cc>
     af8:	00c008ef          	jal	a7,b04 <rvtest_code_begin+0x98c>
     afc:	000121b7          	lui	gp,0x12
     b00:	3ab18193          	addi	gp,gp,939 # 123ab <fromhost+0xfdab>
     b04:	0030a823          	sw	gp,16(ra)
     b08:	00001097          	auipc	ra,0x1
     b0c:	67008093          	addi	ra,ra,1648 # 2178 <signature_19_0>
     b10:	0000d1b7          	lui	gp,0xd
     b14:	ccc18193          	addi	gp,gp,-820 # cccc <fromhost+0xa6cc>
     b18:	00c0096f          	jal	s2,b24 <rvtest_code_begin+0x9ac>
     b1c:	000121b7          	lui	gp,0x12
     b20:	3ab18193          	addi	gp,gp,939 # 123ab <fromhost+0xfdab>
     b24:	0030a023          	sw	gp,0(ra)
     b28:	0000d1b7          	lui	gp,0xd
     b2c:	ccc18193          	addi	gp,gp,-820 # cccc <fromhost+0xa6cc>
     b30:	00c009ef          	jal	s3,b3c <rvtest_code_begin+0x9c4>
     b34:	000121b7          	lui	gp,0x12
     b38:	3ab18193          	addi	gp,gp,939 # 123ab <fromhost+0xfdab>
     b3c:	0030a223          	sw	gp,4(ra)
     b40:	0080006f          	j	b48 <rvtest_code_begin+0x9d0>
     b44:	0180006f          	j	b5c <rvtest_code_begin+0x9e4>
     b48:	0000d1b7          	lui	gp,0xd
     b4c:	ccc18193          	addi	gp,gp,-820 # cccc <fromhost+0xa6cc>
     b50:	ff5ffa6f          	jal	s4,b44 <rvtest_code_begin+0x9cc>
     b54:	000121b7          	lui	gp,0x12
     b58:	3ab18193          	addi	gp,gp,939 # 123ab <fromhost+0xfdab>
     b5c:	0030a423          	sw	gp,8(ra)
     b60:	0000d1b7          	lui	gp,0xd
     b64:	ccc18193          	addi	gp,gp,-820 # cccc <fromhost+0xa6cc>
     b68:	00c00aef          	jal	s5,b74 <rvtest_code_begin+0x9fc>
     b6c:	000121b7          	lui	gp,0x12
     b70:	3ab18193          	addi	gp,gp,939 # 123ab <fromhost+0xfdab>
     b74:	0030a623          	sw	gp,12(ra)
     b78:	0000d1b7          	lui	gp,0xd
     b7c:	ccc18193          	addi	gp,gp,-820 # cccc <fromhost+0xa6cc>
     b80:	00c00b6f          	jal	s6,b8c <rvtest_code_begin+0xa14>
     b84:	000121b7          	lui	gp,0x12
     b88:	3ab18193          	addi	gp,gp,939 # 123ab <fromhost+0xfdab>
     b8c:	0030a823          	sw	gp,16(ra)
     b90:	00001097          	auipc	ra,0x1
     b94:	5fc08093          	addi	ra,ra,1532 # 218c <signature_20_0>
     b98:	0000d1b7          	lui	gp,0xd
     b9c:	ccc18193          	addi	gp,gp,-820 # cccc <fromhost+0xa6cc>
     ba0:	00c00bef          	jal	s7,bac <rvtest_code_begin+0xa34>
     ba4:	000121b7          	lui	gp,0x12
     ba8:	3ab18193          	addi	gp,gp,939 # 123ab <fromhost+0xfdab>
     bac:	0030a023          	sw	gp,0(ra)
     bb0:	0000d1b7          	lui	gp,0xd
     bb4:	ccc18193          	addi	gp,gp,-820 # cccc <fromhost+0xa6cc>
     bb8:	00c00c6f          	jal	s8,bc4 <rvtest_code_begin+0xa4c>
     bbc:	000121b7          	lui	gp,0x12
     bc0:	3ab18193          	addi	gp,gp,939 # 123ab <fromhost+0xfdab>
     bc4:	0030a223          	sw	gp,4(ra)
     bc8:	0080006f          	j	bd0 <rvtest_code_begin+0xa58>
     bcc:	0180006f          	j	be4 <rvtest_code_begin+0xa6c>
     bd0:	0000d1b7          	lui	gp,0xd
     bd4:	ccc18193          	addi	gp,gp,-820 # cccc <fromhost+0xa6cc>
     bd8:	ff5ffcef          	jal	s9,bcc <rvtest_code_begin+0xa54>
     bdc:	000121b7          	lui	gp,0x12
     be0:	3ab18193          	addi	gp,gp,939 # 123ab <fromhost+0xfdab>
     be4:	0030a423          	sw	gp,8(ra)
     be8:	0000d1b7          	lui	gp,0xd
     bec:	ccc18193          	addi	gp,gp,-820 # cccc <fromhost+0xa6cc>
     bf0:	00c00d6f          	jal	s10,bfc <rvtest_code_begin+0xa84>
     bf4:	000121b7          	lui	gp,0x12
     bf8:	3ab18193          	addi	gp,gp,939 # 123ab <fromhost+0xfdab>
     bfc:	0030a623          	sw	gp,12(ra)
     c00:	0000d1b7          	lui	gp,0xd
     c04:	ccc18193          	addi	gp,gp,-820 # cccc <fromhost+0xa6cc>
     c08:	00c00def          	jal	s11,c14 <rvtest_code_begin+0xa9c>
     c0c:	000121b7          	lui	gp,0x12
     c10:	3ab18193          	addi	gp,gp,939 # 123ab <fromhost+0xfdab>
     c14:	0030a823          	sw	gp,16(ra)
     c18:	00001117          	auipc	sp,0x1
     c1c:	58810113          	addi	sp,sp,1416 # 21a0 <signature_21_0>
     c20:	0000d237          	lui	tp,0xd
     c24:	ccc20213          	addi	tp,tp,-820 # cccc <fromhost+0xa6cc>
     c28:	00c00e6f          	jal	t3,c34 <rvtest_code_begin+0xabc>
     c2c:	00012237          	lui	tp,0x12
     c30:	3ab20213          	addi	tp,tp,939 # 123ab <fromhost+0xfdab>
     c34:	00412023          	sw	tp,0(sp)
     c38:	0000d237          	lui	tp,0xd
     c3c:	ccc20213          	addi	tp,tp,-820 # cccc <fromhost+0xa6cc>
     c40:	00c00eef          	jal	t4,c4c <rvtest_code_begin+0xad4>
     c44:	00012237          	lui	tp,0x12
     c48:	3ab20213          	addi	tp,tp,939 # 123ab <fromhost+0xfdab>
     c4c:	00412223          	sw	tp,4(sp)
     c50:	0080006f          	j	c58 <rvtest_code_begin+0xae0>
     c54:	0180006f          	j	c6c <rvtest_code_begin+0xaf4>
     c58:	0000d237          	lui	tp,0xd
     c5c:	ccc20213          	addi	tp,tp,-820 # cccc <fromhost+0xa6cc>
     c60:	ff5fff6f          	jal	t5,c54 <rvtest_code_begin+0xadc>
     c64:	00012237          	lui	tp,0x12
     c68:	3ab20213          	addi	tp,tp,939 # 123ab <fromhost+0xfdab>
     c6c:	00412423          	sw	tp,8(sp)
     c70:	0000d237          	lui	tp,0xd
     c74:	ccc20213          	addi	tp,tp,-820 # cccc <fromhost+0xa6cc>
     c78:	00c00fef          	jal	t6,c84 <rvtest_code_begin+0xb0c>
     c7c:	00012237          	lui	tp,0x12
     c80:	3ab20213          	addi	tp,tp,939 # 123ab <fromhost+0xfdab>
     c84:	00412623          	sw	tp,12(sp)
     c88:	0000d237          	lui	tp,0xd
     c8c:	ccc20213          	addi	tp,tp,-820 # cccc <fromhost+0xa6cc>
     c90:	00c000ef          	jal	ra,c9c <rvtest_code_begin+0xb24>
     c94:	00012237          	lui	tp,0x12
     c98:	3ab20213          	addi	tp,tp,939 # 123ab <fromhost+0xfdab>
     c9c:	00412823          	sw	tp,16(sp)
     ca0:	00001317          	auipc	t1,0x1
     ca4:	51430313          	addi	t1,t1,1300 # 21b4 <signature_22_0>
     ca8:	0000d437          	lui	s0,0xd
     cac:	ccc40413          	addi	s0,s0,-820 # cccc <fromhost+0xa6cc>
     cb0:	00c000ef          	jal	ra,cbc <rvtest_code_begin+0xb44>
     cb4:	00012437          	lui	s0,0x12
     cb8:	3ab40413          	addi	s0,s0,939 # 123ab <fromhost+0xfdab>
     cbc:	00832023          	sw	s0,0(t1)
     cc0:	0000d437          	lui	s0,0xd
     cc4:	ccc40413          	addi	s0,s0,-820 # cccc <fromhost+0xa6cc>
     cc8:	00c0016f          	jal	sp,cd4 <rvtest_code_begin+0xb5c>
     ccc:	00012437          	lui	s0,0x12
     cd0:	3ab40413          	addi	s0,s0,939 # 123ab <fromhost+0xfdab>
     cd4:	00832223          	sw	s0,4(t1)
     cd8:	0080006f          	j	ce0 <rvtest_code_begin+0xb68>
     cdc:	0180006f          	j	cf4 <rvtest_code_begin+0xb7c>
     ce0:	0000d437          	lui	s0,0xd
     ce4:	ccc40413          	addi	s0,s0,-820 # cccc <fromhost+0xa6cc>
     ce8:	ff5ff1ef          	jal	gp,cdc <rvtest_code_begin+0xb64>
     cec:	00012437          	lui	s0,0x12
     cf0:	3ab40413          	addi	s0,s0,939 # 123ab <fromhost+0xfdab>
     cf4:	00832423          	sw	s0,8(t1)
     cf8:	0000d437          	lui	s0,0xd
     cfc:	ccc40413          	addi	s0,s0,-820 # cccc <fromhost+0xa6cc>
     d00:	00c0026f          	jal	tp,d0c <rvtest_code_begin+0xb94>
     d04:	00012437          	lui	s0,0x12
     d08:	3ab40413          	addi	s0,s0,939 # 123ab <fromhost+0xfdab>
     d0c:	00832623          	sw	s0,12(t1)
     d10:	0000d437          	lui	s0,0xd
     d14:	ccc40413          	addi	s0,s0,-820 # cccc <fromhost+0xa6cc>
     d18:	00c002ef          	jal	t0,d24 <rvtest_code_begin+0xbac>
     d1c:	00012437          	lui	s0,0x12
     d20:	3ab40413          	addi	s0,s0,939 # 123ab <fromhost+0xfdab>
     d24:	00832823          	sw	s0,16(t1)
     d28:	00001097          	auipc	ra,0x1
     d2c:	4a008093          	addi	ra,ra,1184 # 21c8 <signature_23_0>
     d30:	0000d1b7          	lui	gp,0xd
     d34:	ccc18193          	addi	gp,gp,-820 # cccc <fromhost+0xa6cc>
     d38:	00c0036f          	jal	t1,d44 <rvtest_code_begin+0xbcc>
     d3c:	000121b7          	lui	gp,0x12
     d40:	3ab18193          	addi	gp,gp,939 # 123ab <fromhost+0xfdab>
     d44:	0030a023          	sw	gp,0(ra)
     d48:	0000d1b7          	lui	gp,0xd
     d4c:	ccc18193          	addi	gp,gp,-820 # cccc <fromhost+0xa6cc>
     d50:	00c003ef          	jal	t2,d5c <rvtest_code_begin+0xbe4>
     d54:	000121b7          	lui	gp,0x12
     d58:	3ab18193          	addi	gp,gp,939 # 123ab <fromhost+0xfdab>
     d5c:	0030a223          	sw	gp,4(ra)
     d60:	0080006f          	j	d68 <rvtest_code_begin+0xbf0>
     d64:	0180006f          	j	d7c <rvtest_code_begin+0xc04>
     d68:	0000d1b7          	lui	gp,0xd
     d6c:	ccc18193          	addi	gp,gp,-820 # cccc <fromhost+0xa6cc>
     d70:	ff5ff46f          	jal	s0,d64 <rvtest_code_begin+0xbec>
     d74:	000121b7          	lui	gp,0x12
     d78:	3ab18193          	addi	gp,gp,939 # 123ab <fromhost+0xfdab>
     d7c:	0030a423          	sw	gp,8(ra)
     d80:	0000d1b7          	lui	gp,0xd
     d84:	ccc18193          	addi	gp,gp,-820 # cccc <fromhost+0xa6cc>
     d88:	00c004ef          	jal	s1,d94 <rvtest_code_begin+0xc1c>
     d8c:	000121b7          	lui	gp,0x12
     d90:	3ab18193          	addi	gp,gp,939 # 123ab <fromhost+0xfdab>
     d94:	0030a623          	sw	gp,12(ra)
     d98:	0000d1b7          	lui	gp,0xd
     d9c:	ccc18193          	addi	gp,gp,-820 # cccc <fromhost+0xa6cc>
     da0:	00c0056f          	jal	a0,dac <rvtest_code_begin+0xc34>
     da4:	000121b7          	lui	gp,0x12
     da8:	3ab18193          	addi	gp,gp,939 # 123ab <fromhost+0xfdab>
     dac:	0030a823          	sw	gp,16(ra)
     db0:	00001097          	auipc	ra,0x1
     db4:	42c08093          	addi	ra,ra,1068 # 21dc <signature_24_0>
     db8:	0000d1b7          	lui	gp,0xd
     dbc:	ccc18193          	addi	gp,gp,-820 # cccc <fromhost+0xa6cc>
     dc0:	00c005ef          	jal	a1,dcc <rvtest_code_begin+0xc54>
     dc4:	000121b7          	lui	gp,0x12
     dc8:	3ab18193          	addi	gp,gp,939 # 123ab <fromhost+0xfdab>
     dcc:	0030a023          	sw	gp,0(ra)
     dd0:	0000d1b7          	lui	gp,0xd
     dd4:	ccc18193          	addi	gp,gp,-820 # cccc <fromhost+0xa6cc>
     dd8:	00c0066f          	jal	a2,de4 <rvtest_code_begin+0xc6c>
     ddc:	000121b7          	lui	gp,0x12
     de0:	3ab18193          	addi	gp,gp,939 # 123ab <fromhost+0xfdab>
     de4:	0030a223          	sw	gp,4(ra)
     de8:	0080006f          	j	df0 <rvtest_code_begin+0xc78>
     dec:	0180006f          	j	e04 <rvtest_code_begin+0xc8c>
     df0:	0000d1b7          	lui	gp,0xd
     df4:	ccc18193          	addi	gp,gp,-820 # cccc <fromhost+0xa6cc>
     df8:	ff5ff6ef          	jal	a3,dec <rvtest_code_begin+0xc74>
     dfc:	000121b7          	lui	gp,0x12
     e00:	3ab18193          	addi	gp,gp,939 # 123ab <fromhost+0xfdab>
     e04:	0030a423          	sw	gp,8(ra)
     e08:	0000d1b7          	lui	gp,0xd
     e0c:	ccc18193          	addi	gp,gp,-820 # cccc <fromhost+0xa6cc>
     e10:	00c0076f          	jal	a4,e1c <rvtest_code_begin+0xca4>
     e14:	000121b7          	lui	gp,0x12
     e18:	3ab18193          	addi	gp,gp,939 # 123ab <fromhost+0xfdab>
     e1c:	0030a623          	sw	gp,12(ra)
     e20:	0000d1b7          	lui	gp,0xd
     e24:	ccc18193          	addi	gp,gp,-820 # cccc <fromhost+0xa6cc>
     e28:	00c007ef          	jal	a5,e34 <rvtest_code_begin+0xcbc>
     e2c:	000121b7          	lui	gp,0x12
     e30:	3ab18193          	addi	gp,gp,939 # 123ab <fromhost+0xfdab>
     e34:	0030a823          	sw	gp,16(ra)
     e38:	00001097          	auipc	ra,0x1
     e3c:	3b808093          	addi	ra,ra,952 # 21f0 <signature_25_0>
     e40:	0000d1b7          	lui	gp,0xd
     e44:	ccc18193          	addi	gp,gp,-820 # cccc <fromhost+0xa6cc>
     e48:	00c0086f          	jal	a6,e54 <rvtest_code_begin+0xcdc>
     e4c:	000121b7          	lui	gp,0x12
     e50:	3ab18193          	addi	gp,gp,939 # 123ab <fromhost+0xfdab>
     e54:	0030a023          	sw	gp,0(ra)
     e58:	0000d1b7          	lui	gp,0xd
     e5c:	ccc18193          	addi	gp,gp,-820 # cccc <fromhost+0xa6cc>
     e60:	00c008ef          	jal	a7,e6c <rvtest_code_begin+0xcf4>
     e64:	000121b7          	lui	gp,0x12
     e68:	3ab18193          	addi	gp,gp,939 # 123ab <fromhost+0xfdab>
     e6c:	0030a223          	sw	gp,4(ra)
     e70:	0080006f          	j	e78 <rvtest_code_begin+0xd00>
     e74:	0180006f          	j	e8c <rvtest_code_begin+0xd14>
     e78:	0000d1b7          	lui	gp,0xd
     e7c:	ccc18193          	addi	gp,gp,-820 # cccc <fromhost+0xa6cc>
     e80:	ff5ff96f          	jal	s2,e74 <rvtest_code_begin+0xcfc>
     e84:	000121b7          	lui	gp,0x12
     e88:	3ab18193          	addi	gp,gp,939 # 123ab <fromhost+0xfdab>
     e8c:	0030a423          	sw	gp,8(ra)
     e90:	0000d1b7          	lui	gp,0xd
     e94:	ccc18193          	addi	gp,gp,-820 # cccc <fromhost+0xa6cc>
     e98:	00c009ef          	jal	s3,ea4 <rvtest_code_begin+0xd2c>
     e9c:	000121b7          	lui	gp,0x12
     ea0:	3ab18193          	addi	gp,gp,939 # 123ab <fromhost+0xfdab>
     ea4:	0030a623          	sw	gp,12(ra)
     ea8:	0000d1b7          	lui	gp,0xd
     eac:	ccc18193          	addi	gp,gp,-820 # cccc <fromhost+0xa6cc>
     eb0:	00c00a6f          	jal	s4,ebc <rvtest_code_begin+0xd44>
     eb4:	000121b7          	lui	gp,0x12
     eb8:	3ab18193          	addi	gp,gp,939 # 123ab <fromhost+0xfdab>
     ebc:	0030a823          	sw	gp,16(ra)
     ec0:	00001097          	auipc	ra,0x1
     ec4:	34408093          	addi	ra,ra,836 # 2204 <signature_26_0>
     ec8:	0000d1b7          	lui	gp,0xd
     ecc:	ccc18193          	addi	gp,gp,-820 # cccc <fromhost+0xa6cc>
     ed0:	00c00aef          	jal	s5,edc <rvtest_code_begin+0xd64>
     ed4:	000121b7          	lui	gp,0x12
     ed8:	3ab18193          	addi	gp,gp,939 # 123ab <fromhost+0xfdab>
     edc:	0030a023          	sw	gp,0(ra)
     ee0:	0000d1b7          	lui	gp,0xd
     ee4:	ccc18193          	addi	gp,gp,-820 # cccc <fromhost+0xa6cc>
     ee8:	00c00b6f          	jal	s6,ef4 <rvtest_code_begin+0xd7c>
     eec:	000121b7          	lui	gp,0x12
     ef0:	3ab18193          	addi	gp,gp,939 # 123ab <fromhost+0xfdab>
     ef4:	0030a223          	sw	gp,4(ra)
     ef8:	0080006f          	j	f00 <rvtest_code_begin+0xd88>
     efc:	0180006f          	j	f14 <rvtest_code_begin+0xd9c>
     f00:	0000d1b7          	lui	gp,0xd
     f04:	ccc18193          	addi	gp,gp,-820 # cccc <fromhost+0xa6cc>
     f08:	ff5ffbef          	jal	s7,efc <rvtest_code_begin+0xd84>
     f0c:	000121b7          	lui	gp,0x12
     f10:	3ab18193          	addi	gp,gp,939 # 123ab <fromhost+0xfdab>
     f14:	0030a423          	sw	gp,8(ra)
     f18:	0000d1b7          	lui	gp,0xd
     f1c:	ccc18193          	addi	gp,gp,-820 # cccc <fromhost+0xa6cc>
     f20:	00c00c6f          	jal	s8,f2c <rvtest_code_begin+0xdb4>
     f24:	000121b7          	lui	gp,0x12
     f28:	3ab18193          	addi	gp,gp,939 # 123ab <fromhost+0xfdab>
     f2c:	0030a623          	sw	gp,12(ra)
     f30:	0000d1b7          	lui	gp,0xd
     f34:	ccc18193          	addi	gp,gp,-820 # cccc <fromhost+0xa6cc>
     f38:	00c00cef          	jal	s9,f44 <rvtest_code_begin+0xdcc>
     f3c:	000121b7          	lui	gp,0x12
     f40:	3ab18193          	addi	gp,gp,939 # 123ab <fromhost+0xfdab>
     f44:	0030a823          	sw	gp,16(ra)
     f48:	00001097          	auipc	ra,0x1
     f4c:	2d008093          	addi	ra,ra,720 # 2218 <signature_27_0>
     f50:	0000d1b7          	lui	gp,0xd
     f54:	ccc18193          	addi	gp,gp,-820 # cccc <fromhost+0xa6cc>
     f58:	00c00d6f          	jal	s10,f64 <rvtest_code_begin+0xdec>
     f5c:	000121b7          	lui	gp,0x12
     f60:	3ab18193          	addi	gp,gp,939 # 123ab <fromhost+0xfdab>
     f64:	0030a023          	sw	gp,0(ra)
     f68:	0000d1b7          	lui	gp,0xd
     f6c:	ccc18193          	addi	gp,gp,-820 # cccc <fromhost+0xa6cc>
     f70:	00c00def          	jal	s11,f7c <rvtest_code_begin+0xe04>
     f74:	000121b7          	lui	gp,0x12
     f78:	3ab18193          	addi	gp,gp,939 # 123ab <fromhost+0xfdab>
     f7c:	0030a223          	sw	gp,4(ra)
     f80:	0080006f          	j	f88 <rvtest_code_begin+0xe10>
     f84:	0180006f          	j	f9c <rvtest_code_begin+0xe24>
     f88:	0000d1b7          	lui	gp,0xd
     f8c:	ccc18193          	addi	gp,gp,-820 # cccc <fromhost+0xa6cc>
     f90:	ff5ffe6f          	jal	t3,f84 <rvtest_code_begin+0xe0c>
     f94:	000121b7          	lui	gp,0x12
     f98:	3ab18193          	addi	gp,gp,939 # 123ab <fromhost+0xfdab>
     f9c:	0030a423          	sw	gp,8(ra)
     fa0:	0000d1b7          	lui	gp,0xd
     fa4:	ccc18193          	addi	gp,gp,-820 # cccc <fromhost+0xa6cc>
     fa8:	00c00eef          	jal	t4,fb4 <rvtest_code_begin+0xe3c>
     fac:	000121b7          	lui	gp,0x12
     fb0:	3ab18193          	addi	gp,gp,939 # 123ab <fromhost+0xfdab>
     fb4:	0030a623          	sw	gp,12(ra)
     fb8:	0000d1b7          	lui	gp,0xd
     fbc:	ccc18193          	addi	gp,gp,-820 # cccc <fromhost+0xa6cc>
     fc0:	00c00f6f          	jal	t5,fcc <rvtest_code_begin+0xe54>
     fc4:	000121b7          	lui	gp,0x12
     fc8:	3ab18193          	addi	gp,gp,939 # 123ab <fromhost+0xfdab>
     fcc:	0030a823          	sw	gp,16(ra)
     fd0:	00001217          	auipc	tp,0x1
     fd4:	25c20213          	addi	tp,tp,604 # 222c <signature_28_0>
     fd8:	0000d337          	lui	t1,0xd
     fdc:	ccc30313          	addi	t1,t1,-820 # cccc <fromhost+0xa6cc>
     fe0:	00c00fef          	jal	t6,fec <rvtest_code_begin+0xe74>
     fe4:	00012337          	lui	t1,0x12
     fe8:	3ab30313          	addi	t1,t1,939 # 123ab <fromhost+0xfdab>
     fec:	00622023          	sw	t1,0(tp) # 0 <rvtest_entry_point>
     ff0:	0000d337          	lui	t1,0xd
     ff4:	ccc30313          	addi	t1,t1,-820 # cccc <fromhost+0xa6cc>
     ff8:	00c000ef          	jal	ra,1004 <rvtest_code_begin+0xe8c>
     ffc:	00012337          	lui	t1,0x12
    1000:	3ab30313          	addi	t1,t1,939 # 123ab <fromhost+0xfdab>
    1004:	00622223          	sw	t1,4(tp) # 4 <trap_vector>
    1008:	0080006f          	j	1010 <rvtest_code_begin+0xe98>
    100c:	0180006f          	j	1024 <rvtest_code_begin+0xeac>
    1010:	0000d337          	lui	t1,0xd
    1014:	ccc30313          	addi	t1,t1,-820 # cccc <fromhost+0xa6cc>
    1018:	ff5ff0ef          	jal	ra,100c <rvtest_code_begin+0xe94>
    101c:	00012337          	lui	t1,0x12
    1020:	3ab30313          	addi	t1,t1,939 # 123ab <fromhost+0xfdab>
    1024:	00622423          	sw	t1,8(tp) # 8 <trap_vector+0x4>
    1028:	0000d337          	lui	t1,0xd
    102c:	ccc30313          	addi	t1,t1,-820 # cccc <fromhost+0xa6cc>
    1030:	00c0016f          	jal	sp,103c <rvtest_code_begin+0xec4>
    1034:	00012337          	lui	t1,0x12
    1038:	3ab30313          	addi	t1,t1,939 # 123ab <fromhost+0xfdab>
    103c:	00622623          	sw	t1,12(tp) # c <trap_vector+0x8>
    1040:	0000d337          	lui	t1,0xd
    1044:	ccc30313          	addi	t1,t1,-820 # cccc <fromhost+0xa6cc>
    1048:	00c001ef          	jal	gp,1054 <rvtest_code_begin+0xedc>
    104c:	00012337          	lui	t1,0x12
    1050:	3ab30313          	addi	t1,t1,939 # 123ab <fromhost+0xfdab>
    1054:	00622823          	sw	t1,16(tp) # 10 <trap_vector+0xc>
    1058:	00001097          	auipc	ra,0x1
    105c:	1e808093          	addi	ra,ra,488 # 2240 <signature_29_0>
    1060:	0000d1b7          	lui	gp,0xd
    1064:	ccc18193          	addi	gp,gp,-820 # cccc <fromhost+0xa6cc>
    1068:	00c0026f          	jal	tp,1074 <rvtest_code_begin+0xefc>
    106c:	000121b7          	lui	gp,0x12
    1070:	3ab18193          	addi	gp,gp,939 # 123ab <fromhost+0xfdab>
    1074:	0030a023          	sw	gp,0(ra)
    1078:	0000d1b7          	lui	gp,0xd
    107c:	ccc18193          	addi	gp,gp,-820 # cccc <fromhost+0xa6cc>
    1080:	00c002ef          	jal	t0,108c <rvtest_code_begin+0xf14>
    1084:	000121b7          	lui	gp,0x12
    1088:	3ab18193          	addi	gp,gp,939 # 123ab <fromhost+0xfdab>
    108c:	0030a223          	sw	gp,4(ra)
    1090:	0080006f          	j	1098 <rvtest_code_begin+0xf20>
    1094:	0180006f          	j	10ac <rvtest_code_begin+0xf34>
    1098:	0000d1b7          	lui	gp,0xd
    109c:	ccc18193          	addi	gp,gp,-820 # cccc <fromhost+0xa6cc>
    10a0:	ff5ff36f          	jal	t1,1094 <rvtest_code_begin+0xf1c>
    10a4:	000121b7          	lui	gp,0x12
    10a8:	3ab18193          	addi	gp,gp,939 # 123ab <fromhost+0xfdab>
    10ac:	0030a423          	sw	gp,8(ra)
    10b0:	0000d1b7          	lui	gp,0xd
    10b4:	ccc18193          	addi	gp,gp,-820 # cccc <fromhost+0xa6cc>
    10b8:	00c003ef          	jal	t2,10c4 <rvtest_code_begin+0xf4c>
    10bc:	000121b7          	lui	gp,0x12
    10c0:	3ab18193          	addi	gp,gp,939 # 123ab <fromhost+0xfdab>
    10c4:	0030a623          	sw	gp,12(ra)
    10c8:	0000d1b7          	lui	gp,0xd
    10cc:	ccc18193          	addi	gp,gp,-820 # cccc <fromhost+0xa6cc>
    10d0:	00c0046f          	jal	s0,10dc <rvtest_code_begin+0xf64>
    10d4:	000121b7          	lui	gp,0x12
    10d8:	3ab18193          	addi	gp,gp,939 # 123ab <fromhost+0xfdab>
    10dc:	0030a823          	sw	gp,16(ra)
    10e0:	00001097          	auipc	ra,0x1
    10e4:	17408093          	addi	ra,ra,372 # 2254 <signature_30_0>
    10e8:	0000d1b7          	lui	gp,0xd
    10ec:	ccc18193          	addi	gp,gp,-820 # cccc <fromhost+0xa6cc>
    10f0:	00c004ef          	jal	s1,10fc <rvtest_code_begin+0xf84>
    10f4:	000121b7          	lui	gp,0x12
    10f8:	3ab18193          	addi	gp,gp,939 # 123ab <fromhost+0xfdab>
    10fc:	0030a023          	sw	gp,0(ra)
    1100:	0000d1b7          	lui	gp,0xd
    1104:	ccc18193          	addi	gp,gp,-820 # cccc <fromhost+0xa6cc>
    1108:	00c0056f          	jal	a0,1114 <rvtest_code_begin+0xf9c>
    110c:	000121b7          	lui	gp,0x12
    1110:	3ab18193          	addi	gp,gp,939 # 123ab <fromhost+0xfdab>
    1114:	0030a223          	sw	gp,4(ra)
    1118:	0080006f          	j	1120 <rvtest_code_begin+0xfa8>
    111c:	0180006f          	j	1134 <rvtest_code_begin+0xfbc>
    1120:	0000d1b7          	lui	gp,0xd
    1124:	ccc18193          	addi	gp,gp,-820 # cccc <fromhost+0xa6cc>
    1128:	ff5ff5ef          	jal	a1,111c <rvtest_code_begin+0xfa4>
    112c:	000121b7          	lui	gp,0x12
    1130:	3ab18193          	addi	gp,gp,939 # 123ab <fromhost+0xfdab>
    1134:	0030a423          	sw	gp,8(ra)
    1138:	0000d1b7          	lui	gp,0xd
    113c:	ccc18193          	addi	gp,gp,-820 # cccc <fromhost+0xa6cc>
    1140:	00c0066f          	jal	a2,114c <rvtest_code_begin+0xfd4>
    1144:	000121b7          	lui	gp,0x12
    1148:	3ab18193          	addi	gp,gp,939 # 123ab <fromhost+0xfdab>
    114c:	0030a623          	sw	gp,12(ra)
    1150:	0000d1b7          	lui	gp,0xd
    1154:	ccc18193          	addi	gp,gp,-820 # cccc <fromhost+0xa6cc>
    1158:	00c006ef          	jal	a3,1164 <rvtest_code_begin+0xfec>
    115c:	000121b7          	lui	gp,0x12
    1160:	3ab18193          	addi	gp,gp,939 # 123ab <fromhost+0xfdab>
    1164:	0030a823          	sw	gp,16(ra)
    1168:	00001097          	auipc	ra,0x1
    116c:	10008093          	addi	ra,ra,256 # 2268 <signature_31_0>
    1170:	0000d1b7          	lui	gp,0xd
    1174:	ccc18193          	addi	gp,gp,-820 # cccc <fromhost+0xa6cc>
    1178:	00c0076f          	jal	a4,1184 <rvtest_code_begin+0x100c>
    117c:	000121b7          	lui	gp,0x12
    1180:	3ab18193          	addi	gp,gp,939 # 123ab <fromhost+0xfdab>
    1184:	0030a023          	sw	gp,0(ra)
    1188:	0000d1b7          	lui	gp,0xd
    118c:	ccc18193          	addi	gp,gp,-820 # cccc <fromhost+0xa6cc>
    1190:	00c007ef          	jal	a5,119c <rvtest_code_begin+0x1024>
    1194:	000121b7          	lui	gp,0x12
    1198:	3ab18193          	addi	gp,gp,939 # 123ab <fromhost+0xfdab>
    119c:	0030a223          	sw	gp,4(ra)
    11a0:	0080006f          	j	11a8 <rvtest_code_begin+0x1030>
    11a4:	0180006f          	j	11bc <rvtest_code_begin+0x1044>
    11a8:	0000d1b7          	lui	gp,0xd
    11ac:	ccc18193          	addi	gp,gp,-820 # cccc <fromhost+0xa6cc>
    11b0:	ff5ff86f          	jal	a6,11a4 <rvtest_code_begin+0x102c>
    11b4:	000121b7          	lui	gp,0x12
    11b8:	3ab18193          	addi	gp,gp,939 # 123ab <fromhost+0xfdab>
    11bc:	0030a423          	sw	gp,8(ra)
    11c0:	0000d1b7          	lui	gp,0xd
    11c4:	ccc18193          	addi	gp,gp,-820 # cccc <fromhost+0xa6cc>
    11c8:	00c008ef          	jal	a7,11d4 <rvtest_code_begin+0x105c>
    11cc:	000121b7          	lui	gp,0x12
    11d0:	3ab18193          	addi	gp,gp,939 # 123ab <fromhost+0xfdab>
    11d4:	0030a623          	sw	gp,12(ra)
    11d8:	0000d1b7          	lui	gp,0xd
    11dc:	ccc18193          	addi	gp,gp,-820 # cccc <fromhost+0xa6cc>
    11e0:	00c0096f          	jal	s2,11ec <rvtest_code_begin+0x1074>
    11e4:	000121b7          	lui	gp,0x12
    11e8:	3ab18193          	addi	gp,gp,939 # 123ab <fromhost+0xfdab>
    11ec:	0030a823          	sw	gp,16(ra)
    11f0:	00001097          	auipc	ra,0x1
    11f4:	08c08093          	addi	ra,ra,140 # 227c <signature_32_0>
    11f8:	0000d1b7          	lui	gp,0xd
    11fc:	ccc18193          	addi	gp,gp,-820 # cccc <fromhost+0xa6cc>
    1200:	00c009ef          	jal	s3,120c <rvtest_code_begin+0x1094>
    1204:	000121b7          	lui	gp,0x12
    1208:	3ab18193          	addi	gp,gp,939 # 123ab <fromhost+0xfdab>
    120c:	0030a023          	sw	gp,0(ra)
    1210:	0000d1b7          	lui	gp,0xd
    1214:	ccc18193          	addi	gp,gp,-820 # cccc <fromhost+0xa6cc>
    1218:	00c00a6f          	jal	s4,1224 <rvtest_code_begin+0x10ac>
    121c:	000121b7          	lui	gp,0x12
    1220:	3ab18193          	addi	gp,gp,939 # 123ab <fromhost+0xfdab>
    1224:	0030a223          	sw	gp,4(ra)
    1228:	0080006f          	j	1230 <rvtest_code_begin+0x10b8>
    122c:	0180006f          	j	1244 <rvtest_code_begin+0x10cc>
    1230:	0000d1b7          	lui	gp,0xd
    1234:	ccc18193          	addi	gp,gp,-820 # cccc <fromhost+0xa6cc>
    1238:	ff5ffaef          	jal	s5,122c <rvtest_code_begin+0x10b4>
    123c:	000121b7          	lui	gp,0x12
    1240:	3ab18193          	addi	gp,gp,939 # 123ab <fromhost+0xfdab>
    1244:	0030a423          	sw	gp,8(ra)
    1248:	0000d1b7          	lui	gp,0xd
    124c:	ccc18193          	addi	gp,gp,-820 # cccc <fromhost+0xa6cc>
    1250:	00c00b6f          	jal	s6,125c <rvtest_code_begin+0x10e4>
    1254:	000121b7          	lui	gp,0x12
    1258:	3ab18193          	addi	gp,gp,939 # 123ab <fromhost+0xfdab>
    125c:	0030a623          	sw	gp,12(ra)
    1260:	0000d1b7          	lui	gp,0xd
    1264:	ccc18193          	addi	gp,gp,-820 # cccc <fromhost+0xa6cc>
    1268:	00c00bef          	jal	s7,1274 <rvtest_code_begin+0x10fc>
    126c:	000121b7          	lui	gp,0x12
    1270:	3ab18193          	addi	gp,gp,939 # 123ab <fromhost+0xfdab>
    1274:	0030a823          	sw	gp,16(ra)
    1278:	00001097          	auipc	ra,0x1
    127c:	01808093          	addi	ra,ra,24 # 2290 <signature_33_0>
    1280:	0000d1b7          	lui	gp,0xd
    1284:	ccc18193          	addi	gp,gp,-820 # cccc <fromhost+0xa6cc>
    1288:	00c00c6f          	jal	s8,1294 <rvtest_code_begin+0x111c>
    128c:	000121b7          	lui	gp,0x12
    1290:	3ab18193          	addi	gp,gp,939 # 123ab <fromhost+0xfdab>
    1294:	0030a023          	sw	gp,0(ra)
    1298:	0000d1b7          	lui	gp,0xd
    129c:	ccc18193          	addi	gp,gp,-820 # cccc <fromhost+0xa6cc>
    12a0:	00c00cef          	jal	s9,12ac <rvtest_code_begin+0x1134>
    12a4:	000121b7          	lui	gp,0x12
    12a8:	3ab18193          	addi	gp,gp,939 # 123ab <fromhost+0xfdab>
    12ac:	0030a223          	sw	gp,4(ra)
    12b0:	0080006f          	j	12b8 <rvtest_code_begin+0x1140>
    12b4:	0180006f          	j	12cc <rvtest_code_begin+0x1154>
    12b8:	0000d1b7          	lui	gp,0xd
    12bc:	ccc18193          	addi	gp,gp,-820 # cccc <fromhost+0xa6cc>
    12c0:	ff5ffd6f          	jal	s10,12b4 <rvtest_code_begin+0x113c>
    12c4:	000121b7          	lui	gp,0x12
    12c8:	3ab18193          	addi	gp,gp,939 # 123ab <fromhost+0xfdab>
    12cc:	0030a423          	sw	gp,8(ra)
    12d0:	0000d1b7          	lui	gp,0xd
    12d4:	ccc18193          	addi	gp,gp,-820 # cccc <fromhost+0xa6cc>
    12d8:	00c00def          	jal	s11,12e4 <rvtest_code_begin+0x116c>
    12dc:	000121b7          	lui	gp,0x12
    12e0:	3ab18193          	addi	gp,gp,939 # 123ab <fromhost+0xfdab>
    12e4:	0030a623          	sw	gp,12(ra)
    12e8:	0000d1b7          	lui	gp,0xd
    12ec:	ccc18193          	addi	gp,gp,-820 # cccc <fromhost+0xa6cc>
    12f0:	00c00e6f          	jal	t3,12fc <rvtest_code_begin+0x1184>
    12f4:	000121b7          	lui	gp,0x12
    12f8:	3ab18193          	addi	gp,gp,939 # 123ab <fromhost+0xfdab>
    12fc:	0030a823          	sw	gp,16(ra)
    1300:	00001097          	auipc	ra,0x1
    1304:	fa408093          	addi	ra,ra,-92 # 22a4 <signature_34_0>
    1308:	0000d1b7          	lui	gp,0xd
    130c:	ccc18193          	addi	gp,gp,-820 # cccc <fromhost+0xa6cc>
    1310:	00c00eef          	jal	t4,131c <rvtest_code_begin+0x11a4>
    1314:	000121b7          	lui	gp,0x12
    1318:	3ab18193          	addi	gp,gp,939 # 123ab <fromhost+0xfdab>
    131c:	0030a023          	sw	gp,0(ra)
    1320:	0000d1b7          	lui	gp,0xd
    1324:	ccc18193          	addi	gp,gp,-820 # cccc <fromhost+0xa6cc>
    1328:	00c00f6f          	jal	t5,1334 <rvtest_code_begin+0x11bc>
    132c:	000121b7          	lui	gp,0x12
    1330:	3ab18193          	addi	gp,gp,939 # 123ab <fromhost+0xfdab>
    1334:	0030a223          	sw	gp,4(ra)
    1338:	0080006f          	j	1340 <rvtest_code_begin+0x11c8>
    133c:	0180006f          	j	1354 <rvtest_code_begin+0x11dc>
    1340:	0000d1b7          	lui	gp,0xd
    1344:	ccc18193          	addi	gp,gp,-820 # cccc <fromhost+0xa6cc>
    1348:	ff5fffef          	jal	t6,133c <rvtest_code_begin+0x11c4>
    134c:	000121b7          	lui	gp,0x12
    1350:	3ab18193          	addi	gp,gp,939 # 123ab <fromhost+0xfdab>
    1354:	0030a423          	sw	gp,8(ra)
    1358:	0000d1b7          	lui	gp,0xd
    135c:	ccc18193          	addi	gp,gp,-820 # cccc <fromhost+0xa6cc>
    1360:	00c0006f          	j	136c <rvtest_code_begin+0x11f4>
    1364:	000121b7          	lui	gp,0x12
    1368:	3ab18193          	addi	gp,gp,939 # 123ab <fromhost+0xfdab>
    136c:	0030a623          	sw	gp,12(ra)

00001370 <rvtest_code_end>:
    1370:	0ff0000f          	fence
    1374:	00000073          	ecall
	...

Disassembly of section .tohost:

00002500 <tohost>:
	...

00002600 <fromhost>:
	...
