
/home/hassan/nucleusrv/imperas-riscv-tests/work/rv32i_m/I/LW-01.elf:     file format elf32-littleriscv


Disassembly of section .text.init:

00000000 <rvtest_entry_point>:
       0:	0440006f          	j	44 <reset_vector>

00000004 <trap_vector>:
       4:	342022f3          	csrr	t0,mcause
       8:	00800313          	li	t1,8
       c:	02628663          	beq	t0,t1,38 <write_tohost>
      10:	00900313          	li	t1,9
      14:	02628263          	beq	t0,t1,38 <write_tohost>
      18:	00b00313          	li	t1,11
      1c:	00628e63          	beq	t0,t1,38 <write_tohost>
      20:	00000293          	li	t0,0
      24:	00028463          	beqz	t0,2c <trap_vector+0x28>
      28:	00028067          	jr	t0
      2c:	342022f3          	csrr	t0,mcause
      30:	0002d263          	bgez	t0,34 <handle_exception>

00000034 <handle_exception>:
      34:	5391e193          	ori	gp,gp,1337

00000038 <write_tohost>:
      38:	00002297          	auipc	t0,0x2
      3c:	5c32a423          	sw	gp,1480(t0) # 2600 <tohost>
      40:	ff9ff06f          	j	38 <write_tohost>

00000044 <reset_vector>:
      44:	00002537          	lui	a0,0x2
      48:	80050513          	addi	a0,a0,-2048 # 1800 <rvtest_code_end+0x230>
      4c:	30052073          	csrs	mstatus,a0
      50:	00000297          	auipc	t0,0x0
      54:	fb428293          	addi	t0,t0,-76 # 4 <trap_vector>
      58:	30529073          	csrw	mtvec,t0
      5c:	00000297          	auipc	t0,0x0
      60:	02428293          	addi	t0,t0,36 # 80 <rvtest_init>
      64:	34129073          	csrw	mepc,t0
      68:	f1402573          	csrr	a0,mhartid
      6c:	30200073          	mret
      70:	00000013          	nop
      74:	00000013          	nop
      78:	00000013          	nop
      7c:	00000013          	nop

00000080 <rvtest_init>:
      80:	feedc0b7          	lui	ra,0xfeedc
      84:	ead08093          	addi	ra,ra,-339 # feedbead <fromhost+0xfeed97ad>
      88:	ff76e137          	lui	sp,0xff76e
      8c:	f5610113          	addi	sp,sp,-170 # ff76df56 <fromhost+0xff76b856>
      90:	7fbb71b7          	lui	gp,0x7fbb7
      94:	fab18193          	addi	gp,gp,-85 # 7fbb6fab <fromhost+0x7fbb48ab>
      98:	bfddb237          	lui	tp,0xbfddb
      9c:	7d520213          	addi	tp,tp,2005 # bfddb7d5 <fromhost+0xbfdd90d5>
      a0:	00000297          	auipc	t0,0x0
      a4:	0d828293          	addi	t0,t0,216 # 178 <rvtest_code_begin>
      a8:	00002317          	auipc	t1,0x2
      ac:	f5830313          	addi	t1,t1,-168 # 2000 <rvtest_data_begin>
      b0:	b7fbb3b7          	lui	t2,0xb7fbb
      b4:	6fa38393          	addi	t2,t2,1786 # b7fbb6fa <fromhost+0xb7fb8ffa>
      b8:	5bfde437          	lui	s0,0x5bfde
      bc:	b7d40413          	addi	s0,s0,-1155 # 5bfddb7d <fromhost+0x5bfdb47d>
      c0:	adfef4b7          	lui	s1,0xadfef
      c4:	dbe48493          	addi	s1,s1,-578 # adfeedbe <fromhost+0xadfec6be>
      c8:	56ff7537          	lui	a0,0x56ff7
      cc:	6df50513          	addi	a0,a0,1759 # 56ff76df <fromhost+0x56ff4fdf>
      d0:	ab7fc5b7          	lui	a1,0xab7fc
      d4:	b6f58593          	addi	a1,a1,-1169 # ab7fbb6f <fromhost+0xab7f946f>
      d8:	d5bfe637          	lui	a2,0xd5bfe
      dc:	db760613          	addi	a2,a2,-585 # d5bfddb7 <fromhost+0xd5bfb6b7>
      e0:	eadff6b7          	lui	a3,0xeadff
      e4:	edb68693          	addi	a3,a3,-293 # eadfeedb <fromhost+0xeadfc7db>
      e8:	f56ff737          	lui	a4,0xf56ff
      ec:	76d70713          	addi	a4,a4,1901 # f56ff76d <fromhost+0xf56fd06d>
      f0:	fab807b7          	lui	a5,0xfab80
      f4:	bb678793          	addi	a5,a5,-1098 # fab7fbb6 <fromhost+0xfab7d4b6>
      f8:	7d5c0837          	lui	a6,0x7d5c0
      fc:	ddb80813          	addi	a6,a6,-549 # 7d5bfddb <fromhost+0x7d5bd6db>
     100:	beae08b7          	lui	a7,0xbeae0
     104:	eed88893          	addi	a7,a7,-275 # beadfeed <fromhost+0xbeadd7ed>
     108:	df570937          	lui	s2,0xdf570
     10c:	f7690913          	addi	s2,s2,-138 # df56ff76 <fromhost+0xdf56d876>
     110:	6fab89b7          	lui	s3,0x6fab8
     114:	fbb98993          	addi	s3,s3,-69 # 6fab7fbb <fromhost+0x6fab58bb>
     118:	b7d5ca37          	lui	s4,0xb7d5c
     11c:	fdda0a13          	addi	s4,s4,-35 # b7d5bfdd <fromhost+0xb7d598dd>
     120:	dbeaeab7          	lui	s5,0xdbeae
     124:	feea8a93          	addi	s5,s5,-18 # dbeadfee <fromhost+0xdbeab8ee>
     128:	6df57b37          	lui	s6,0x6df57
     12c:	ff7b0b13          	addi	s6,s6,-9 # 6df56ff7 <fromhost+0x6df548f7>
     130:	b6fabbb7          	lui	s7,0xb6fab
     134:	7fbb8b93          	addi	s7,s7,2043 # b6fab7fb <fromhost+0xb6fa90fb>
     138:	db7d6c37          	lui	s8,0xdb7d6
     13c:	bfdc0c13          	addi	s8,s8,-1027 # db7d5bfd <fromhost+0xdb7d34fd>
     140:	edbebcb7          	lui	s9,0xedbeb
     144:	dfec8c93          	addi	s9,s9,-514 # edbeadfe <fromhost+0xedbe86fe>
     148:	76df5d37          	lui	s10,0x76df5
     14c:	6ffd0d13          	addi	s10,s10,1791 # 76df56ff <fromhost+0x76df2fff>
     150:	bb6fbdb7          	lui	s11,0xbb6fb
     154:	b7fd8d93          	addi	s11,s11,-1153 # bb6fab7f <fromhost+0xbb6f847f>
     158:	ddb7de37          	lui	t3,0xddb7d
     15c:	5bfe0e13          	addi	t3,t3,1471 # ddb7d5bf <fromhost+0xddb7aebf>
     160:	eedbfeb7          	lui	t4,0xeedbf
     164:	adfe8e93          	addi	t4,t4,-1313 # eedbeadf <fromhost+0xeedbc3df>
     168:	f76dff37          	lui	t5,0xf76df
     16c:	56ff0f13          	addi	t5,t5,1391 # f76df56f <fromhost+0xf76dce6f>
     170:	fbb70fb7          	lui	t6,0xfbb70
     174:	ab7f8f93          	addi	t6,t6,-1353 # fbb6fab7 <fromhost+0xfbb6d3b7>

00000178 <rvtest_code_begin>:
     178:	00002097          	auipc	ra,0x2
     17c:	fa808093          	addi	ra,ra,-88 # 2120 <begin_signature>
     180:	00002e97          	auipc	t4,0x2
     184:	e90e8e93          	addi	t4,t4,-368 # 2010 <test_data>
     188:	000e8e93          	mv	t4,t4
     18c:	2d900193          	li	gp,729
     190:	003e8eb3          	add	t4,t4,gp
     194:	d27ea983          	lw	s3,-729(t4)
     198:	0130a023          	sw	s3,0(ra)
     19c:	00002a97          	auipc	s5,0x2
     1a0:	e74a8a93          	addi	s5,s5,-396 # 2010 <test_data>
     1a4:	004a8a93          	addi	s5,s5,4
     1a8:	5af00193          	li	gp,1455
     1ac:	003a8ab3          	add	s5,s5,gp
     1b0:	a51aaf03          	lw	t5,-1455(s5)
     1b4:	01e0a223          	sw	t5,4(ra)
     1b8:	00002117          	auipc	sp,0x2
     1bc:	e5810113          	addi	sp,sp,-424 # 2010 <test_data>
     1c0:	00810113          	addi	sp,sp,8
     1c4:	39b00193          	li	gp,923
     1c8:	00310133          	add	sp,sp,gp
     1cc:	c6512503          	lw	a0,-923(sp)
     1d0:	00a0a423          	sw	a0,8(ra)
     1d4:	00002117          	auipc	sp,0x2
     1d8:	f5810113          	addi	sp,sp,-168 # 212c <signature_2_0>
     1dc:	00002097          	auipc	ra,0x2
     1e0:	e3408093          	addi	ra,ra,-460 # 2010 <test_data>
     1e4:	00c08093          	addi	ra,ra,12
     1e8:	59c00213          	li	tp,1436
     1ec:	004080b3          	add	ra,ra,tp
     1f0:	a640a183          	lw	gp,-1436(ra)
     1f4:	00312023          	sw	gp,0(sp)
     1f8:	00002317          	auipc	t1,0x2
     1fc:	e1830313          	addi	t1,t1,-488 # 2010 <test_data>
     200:	01030313          	addi	t1,t1,16
     204:	3e200213          	li	tp,994
     208:	00430333          	add	t1,t1,tp
     20c:	c1e32e83          	lw	t4,-994(t1)
     210:	01d12223          	sw	t4,4(sp)
     214:	00002717          	auipc	a4,0x2
     218:	dfc70713          	addi	a4,a4,-516 # 2010 <test_data>
     21c:	01470713          	addi	a4,a4,20
     220:	52100213          	li	tp,1313
     224:	00470733          	add	a4,a4,tp
     228:	adf72003          	lw	zero,-1313(a4)
     22c:	00012423          	sw	zero,8(sp)
     230:	00002097          	auipc	ra,0x2
     234:	f0808093          	addi	ra,ra,-248 # 2138 <signature_3_0>
     238:	00002617          	auipc	a2,0x2
     23c:	dd860613          	addi	a2,a2,-552 # 2010 <test_data>
     240:	01860613          	addi	a2,a2,24
     244:	51900113          	li	sp,1305
     248:	00260633          	add	a2,a2,sp
     24c:	ae762203          	lw	tp,-1305(a2)
     250:	0040a023          	sw	tp,0(ra)
     254:	00002197          	auipc	gp,0x2
     258:	dbc18193          	addi	gp,gp,-580 # 2010 <test_data>
     25c:	01c18193          	addi	gp,gp,28
     260:	c2f00113          	li	sp,-977
     264:	002181b3          	add	gp,gp,sp
     268:	3d11ac83          	lw	s9,977(gp)
     26c:	0190a223          	sw	s9,4(ra)
     270:	00002997          	auipc	s3,0x2
     274:	da098993          	addi	s3,s3,-608 # 2010 <test_data>
     278:	02098993          	addi	s3,s3,32
     27c:	00c00113          	li	sp,12
     280:	002989b3          	add	s3,s3,sp
     284:	ff49a903          	lw	s2,-12(s3)
     288:	0120a423          	sw	s2,8(ra)
     28c:	00002117          	auipc	sp,0x2
     290:	eb810113          	addi	sp,sp,-328 # 2144 <signature_4_0>
     294:	00002517          	auipc	a0,0x2
     298:	d7c50513          	addi	a0,a0,-644 # 2010 <test_data>
     29c:	02450513          	addi	a0,a0,36
     2a0:	b4000193          	li	gp,-1216
     2a4:	00350533          	add	a0,a0,gp
     2a8:	4c052383          	lw	t2,1216(a0)
     2ac:	00712023          	sw	t2,0(sp)
     2b0:	00002917          	auipc	s2,0x2
     2b4:	d6090913          	addi	s2,s2,-672 # 2010 <test_data>
     2b8:	02890913          	addi	s2,s2,40
     2bc:	9c200193          	li	gp,-1598
     2c0:	00390933          	add	s2,s2,gp
     2c4:	63e92f83          	lw	t6,1598(s2)
     2c8:	01f12223          	sw	t6,4(sp)
     2cc:	00002097          	auipc	ra,0x2
     2d0:	d4408093          	addi	ra,ra,-700 # 2010 <test_data>
     2d4:	02c08093          	addi	ra,ra,44
     2d8:	65200193          	li	gp,1618
     2dc:	003080b3          	add	ra,ra,gp
     2e0:	9ae0ab83          	lw	s7,-1618(ra)
     2e4:	01712423          	sw	s7,8(sp)
     2e8:	00002197          	auipc	gp,0x2
     2ec:	e6818193          	addi	gp,gp,-408 # 2150 <signature_5_0>
     2f0:	00002117          	auipc	sp,0x2
     2f4:	d2010113          	addi	sp,sp,-736 # 2010 <test_data>
     2f8:	03010113          	addi	sp,sp,48
     2fc:	9b000213          	li	tp,-1616
     300:	00410133          	add	sp,sp,tp
     304:	65012a83          	lw	s5,1616(sp)
     308:	0151a023          	sw	s5,0(gp)
     30c:	00002097          	auipc	ra,0x2
     310:	d0408093          	addi	ra,ra,-764 # 2010 <test_data>
     314:	03408093          	addi	ra,ra,52
     318:	f8f00213          	li	tp,-113
     31c:	004080b3          	add	ra,ra,tp
     320:	0710af03          	lw	t5,113(ra)
     324:	01e1a223          	sw	t5,4(gp)
     328:	00002097          	auipc	ra,0x2
     32c:	ce808093          	addi	ra,ra,-792 # 2010 <test_data>
     330:	03808093          	addi	ra,ra,56
     334:	22800213          	li	tp,552
     338:	004080b3          	add	ra,ra,tp
     33c:	dd80a883          	lw	a7,-552(ra)
     340:	0111a423          	sw	a7,8(gp)
     344:	00002097          	auipc	ra,0x2
     348:	e1808093          	addi	ra,ra,-488 # 215c <signature_6_0>
     34c:	00002617          	auipc	a2,0x2
     350:	cc460613          	addi	a2,a2,-828 # 2010 <test_data>
     354:	03c60613          	addi	a2,a2,60
     358:	49300193          	li	gp,1171
     35c:	00360633          	add	a2,a2,gp
     360:	b6d62303          	lw	t1,-1171(a2)
     364:	0060a023          	sw	t1,0(ra)
     368:	00002517          	auipc	a0,0x2
     36c:	ca850513          	addi	a0,a0,-856 # 2010 <test_data>
     370:	04050513          	addi	a0,a0,64
     374:	75b00193          	li	gp,1883
     378:	00350533          	add	a0,a0,gp
     37c:	8a552b03          	lw	s6,-1883(a0)
     380:	0160a223          	sw	s6,4(ra)
     384:	00002417          	auipc	s0,0x2
     388:	c8c40413          	addi	s0,s0,-884 # 2010 <test_data>
     38c:	04440413          	addi	s0,s0,68
     390:	9df00193          	li	gp,-1569
     394:	00340433          	add	s0,s0,gp
     398:	62142103          	lw	sp,1569(s0)
     39c:	0020a423          	sw	sp,8(ra)
     3a0:	00002097          	auipc	ra,0x2
     3a4:	dc808093          	addi	ra,ra,-568 # 2168 <signature_7_0>
     3a8:	00002417          	auipc	s0,0x2
     3ac:	c6840413          	addi	s0,s0,-920 # 2010 <test_data>
     3b0:	04840413          	addi	s0,s0,72
     3b4:	45800113          	li	sp,1112
     3b8:	00240433          	add	s0,s0,sp
     3bc:	ba842683          	lw	a3,-1112(s0)
     3c0:	00d0a023          	sw	a3,0(ra)
     3c4:	00002717          	auipc	a4,0x2
     3c8:	c4c70713          	addi	a4,a4,-948 # 2010 <test_data>
     3cc:	04c70713          	addi	a4,a4,76
     3d0:	7e500113          	li	sp,2021
     3d4:	00270733          	add	a4,a4,sp
     3d8:	81b72183          	lw	gp,-2021(a4)
     3dc:	0030a223          	sw	gp,4(ra)
     3e0:	00002697          	auipc	a3,0x2
     3e4:	c3068693          	addi	a3,a3,-976 # 2010 <test_data>
     3e8:	05068693          	addi	a3,a3,80
     3ec:	27400113          	li	sp,628
     3f0:	002686b3          	add	a3,a3,sp
     3f4:	d8c6ac03          	lw	s8,-628(a3)
     3f8:	0180a423          	sw	s8,8(ra)
     3fc:	00002117          	auipc	sp,0x2
     400:	d7810113          	addi	sp,sp,-648 # 2174 <signature_8_0>
     404:	00002917          	auipc	s2,0x2
     408:	c0c90913          	addi	s2,s2,-1012 # 2010 <test_data>
     40c:	05490913          	addi	s2,s2,84
     410:	14b00213          	li	tp,331
     414:	00490933          	add	s2,s2,tp
     418:	eb592183          	lw	gp,-331(s2)
     41c:	00312023          	sw	gp,0(sp)
     420:	00002097          	auipc	ra,0x2
     424:	bf008093          	addi	ra,ra,-1040 # 2010 <test_data>
     428:	05808093          	addi	ra,ra,88
     42c:	2fc00213          	li	tp,764
     430:	004080b3          	add	ra,ra,tp
     434:	d040a703          	lw	a4,-764(ra)
     438:	00e12223          	sw	a4,4(sp)
     43c:	00002997          	auipc	s3,0x2
     440:	bd498993          	addi	s3,s3,-1068 # 2010 <test_data>
     444:	05c98993          	addi	s3,s3,92
     448:	97a00213          	li	tp,-1670
     44c:	004989b3          	add	s3,s3,tp
     450:	6869aa03          	lw	s4,1670(s3)
     454:	01412423          	sw	s4,8(sp)
     458:	00002097          	auipc	ra,0x2
     45c:	d2808093          	addi	ra,ra,-728 # 2180 <signature_9_0>
     460:	00002f17          	auipc	t5,0x2
     464:	bb0f0f13          	addi	t5,t5,-1104 # 2010 <test_data>
     468:	060f0f13          	addi	t5,t5,96
     46c:	6d400193          	li	gp,1748
     470:	003f0f33          	add	t5,t5,gp
     474:	92cf2203          	lw	tp,-1748(t5)
     478:	0040a023          	sw	tp,0(ra)
     47c:	00002f97          	auipc	t6,0x2
     480:	b94f8f93          	addi	t6,t6,-1132 # 2010 <test_data>
     484:	064f8f93          	addi	t6,t6,100
     488:	eaa00193          	li	gp,-342
     48c:	003f8fb3          	add	t6,t6,gp
     490:	156fae83          	lw	t4,342(t6)
     494:	01d0a223          	sw	t4,4(ra)
     498:	00002117          	auipc	sp,0x2
     49c:	b7810113          	addi	sp,sp,-1160 # 2010 <test_data>
     4a0:	06810113          	addi	sp,sp,104
     4a4:	e2c00193          	li	gp,-468
     4a8:	00310133          	add	sp,sp,gp
     4ac:	1d412883          	lw	a7,468(sp)
     4b0:	0110a423          	sw	a7,8(ra)
     4b4:	00002097          	auipc	ra,0x2
     4b8:	cd808093          	addi	ra,ra,-808 # 218c <signature_10_0>
     4bc:	00002217          	auipc	tp,0x2
     4c0:	b5420213          	addi	tp,tp,-1196 # 2010 <test_data>
     4c4:	06c20213          	addi	tp,tp,108 # 6c <reset_vector+0x28>
     4c8:	98800113          	li	sp,-1656
     4cc:	00220233          	add	tp,tp,sp
     4d0:	67822b03          	lw	s6,1656(tp) # 678 <rvtest_code_begin+0x500>
     4d4:	0160a023          	sw	s6,0(ra)
     4d8:	00002a17          	auipc	s4,0x2
     4dc:	b38a0a13          	addi	s4,s4,-1224 # 2010 <test_data>
     4e0:	070a0a13          	addi	s4,s4,112
     4e4:	22400113          	li	sp,548
     4e8:	002a0a33          	add	s4,s4,sp
     4ec:	ddca2183          	lw	gp,-548(s4)
     4f0:	0030a223          	sw	gp,4(ra)
     4f4:	00002717          	auipc	a4,0x2
     4f8:	b1c70713          	addi	a4,a4,-1252 # 2010 <test_data>
     4fc:	07470713          	addi	a4,a4,116
     500:	ace00113          	li	sp,-1330
     504:	00270733          	add	a4,a4,sp
     508:	53272783          	lw	a5,1330(a4)
     50c:	00f0a423          	sw	a5,8(ra)
     510:	00002097          	auipc	ra,0x2
     514:	c8808093          	addi	ra,ra,-888 # 2198 <signature_11_0>
     518:	00002397          	auipc	t2,0x2
     51c:	af838393          	addi	t2,t2,-1288 # 2010 <test_data>
     520:	07838393          	addi	t2,t2,120
     524:	00000113          	li	sp,0
     528:	002383b3          	add	t2,t2,sp
     52c:	0003ae03          	lw	t3,0(t2)
     530:	01c0a023          	sw	t3,0(ra)
     534:	00002397          	auipc	t2,0x2
     538:	adc38393          	addi	t2,t2,-1316 # 2010 <test_data>
     53c:	07c38393          	addi	t2,t2,124
     540:	00100113          	li	sp,1
     544:	002383b3          	add	t2,t2,sp
     548:	fff3a703          	lw	a4,-1(t2)
     54c:	00e0a223          	sw	a4,4(ra)
     550:	00002917          	auipc	s2,0x2
     554:	ac090913          	addi	s2,s2,-1344 # 2010 <test_data>
     558:	08090913          	addi	s2,s2,128
     55c:	00100113          	li	sp,1
     560:	00290933          	add	s2,s2,sp
     564:	fff92483          	lw	s1,-1(s2)
     568:	0090a423          	sw	s1,8(ra)
     56c:	00002097          	auipc	ra,0x2
     570:	c3808093          	addi	ra,ra,-968 # 21a4 <signature_12_0>
     574:	00002797          	auipc	a5,0x2
     578:	a9c78793          	addi	a5,a5,-1380 # 2010 <test_data>
     57c:	08478793          	addi	a5,a5,132
     580:	00100193          	li	gp,1
     584:	003787b3          	add	a5,a5,gp
     588:	fff7a503          	lw	a0,-1(a5)
     58c:	00a0a023          	sw	a0,0(ra)
     590:	00002b97          	auipc	s7,0x2
     594:	a80b8b93          	addi	s7,s7,-1408 # 2010 <test_data>
     598:	088b8b93          	addi	s7,s7,136
     59c:	00000193          	li	gp,0
     5a0:	003b8bb3          	add	s7,s7,gp
     5a4:	000ba303          	lw	t1,0(s7)
     5a8:	0060a223          	sw	t1,4(ra)
     5ac:	00002117          	auipc	sp,0x2
     5b0:	a6410113          	addi	sp,sp,-1436 # 2010 <test_data>
     5b4:	08c10113          	addi	sp,sp,140
     5b8:	00100193          	li	gp,1
     5bc:	00310133          	add	sp,sp,gp
     5c0:	fff12003          	lw	zero,-1(sp)
     5c4:	0000a423          	sw	zero,8(ra)
     5c8:	00002117          	auipc	sp,0x2
     5cc:	be810113          	addi	sp,sp,-1048 # 21b0 <signature_13_0>
     5d0:	00002e97          	auipc	t4,0x2
     5d4:	a40e8e93          	addi	t4,t4,-1472 # 2010 <test_data>
     5d8:	090e8e93          	addi	t4,t4,144
     5dc:	00100193          	li	gp,1
     5e0:	003e8eb3          	add	t4,t4,gp
     5e4:	fffea983          	lw	s3,-1(t4)
     5e8:	01312023          	sw	s3,0(sp)
     5ec:	00002097          	auipc	ra,0x2
     5f0:	a2408093          	addi	ra,ra,-1500 # 2010 <test_data>
     5f4:	09408093          	addi	ra,ra,148
     5f8:	00100193          	li	gp,1
     5fc:	003080b3          	add	ra,ra,gp
     600:	fff0a983          	lw	s3,-1(ra)
     604:	01312223          	sw	s3,4(sp)
     608:	00002e17          	auipc	t3,0x2
     60c:	a08e0e13          	addi	t3,t3,-1528 # 2010 <test_data>
     610:	098e0e13          	addi	t3,t3,152
     614:	00000193          	li	gp,0
     618:	003e0e33          	add	t3,t3,gp
     61c:	000e2f03          	lw	t5,0(t3)
     620:	01e12423          	sw	t5,8(sp)
     624:	00002197          	auipc	gp,0x2
     628:	b9818193          	addi	gp,gp,-1128 # 21bc <signature_14_0>
     62c:	00002c17          	auipc	s8,0x2
     630:	9e4c0c13          	addi	s8,s8,-1564 # 2010 <test_data>
     634:	09cc0c13          	addi	s8,s8,156
     638:	00100213          	li	tp,1
     63c:	004c0c33          	add	s8,s8,tp
     640:	fffc2a83          	lw	s5,-1(s8)
     644:	0151a023          	sw	s5,0(gp)
     648:	00002117          	auipc	sp,0x2
     64c:	9c810113          	addi	sp,sp,-1592 # 2010 <test_data>
     650:	0a010113          	addi	sp,sp,160
     654:	fff00213          	li	tp,-1
     658:	00410133          	add	sp,sp,tp
     65c:	00112083          	lw	ra,1(sp)
     660:	0011a223          	sw	ra,4(gp)
     664:	00002117          	auipc	sp,0x2
     668:	9ac10113          	addi	sp,sp,-1620 # 2010 <test_data>
     66c:	0a410113          	addi	sp,sp,164
     670:	ffe00213          	li	tp,-2
     674:	00410133          	add	sp,sp,tp
     678:	00212083          	lw	ra,2(sp)
     67c:	0011a423          	sw	ra,8(gp)
     680:	00002097          	auipc	ra,0x2
     684:	b4808093          	addi	ra,ra,-1208 # 21c8 <signature_15_0>
     688:	00002197          	auipc	gp,0x2
     68c:	98818193          	addi	gp,gp,-1656 # 2010 <test_data>
     690:	0a818193          	addi	gp,gp,168
     694:	ffc00313          	li	t1,-4
     698:	006181b3          	add	gp,gp,t1
     69c:	0041a103          	lw	sp,4(gp)
     6a0:	0020a023          	sw	sp,0(ra)
     6a4:	00002217          	auipc	tp,0x2
     6a8:	96c20213          	addi	tp,tp,-1684 # 2010 <test_data>
     6ac:	0ac20213          	addi	tp,tp,172 # ac <rvtest_init+0x2c>
     6b0:	ff800313          	li	t1,-8
     6b4:	00620233          	add	tp,tp,t1
     6b8:	00822183          	lw	gp,8(tp) # 8 <trap_vector+0x4>
     6bc:	0030a223          	sw	gp,4(ra)
     6c0:	00002297          	auipc	t0,0x2
     6c4:	95028293          	addi	t0,t0,-1712 # 2010 <test_data>
     6c8:	0b028293          	addi	t0,t0,176
     6cc:	ff000313          	li	t1,-16
     6d0:	006282b3          	add	t0,t0,t1
     6d4:	0102a203          	lw	tp,16(t0)
     6d8:	0040a423          	sw	tp,8(ra)
     6dc:	00002097          	auipc	ra,0x2
     6e0:	af808093          	addi	ra,ra,-1288 # 21d4 <signature_16_0>
     6e4:	00002317          	auipc	t1,0x2
     6e8:	92c30313          	addi	t1,t1,-1748 # 2010 <test_data>
     6ec:	0b430313          	addi	t1,t1,180
     6f0:	fe000113          	li	sp,-32
     6f4:	00230333          	add	t1,t1,sp
     6f8:	02032283          	lw	t0,32(t1)
     6fc:	0050a023          	sw	t0,0(ra)
     700:	00002397          	auipc	t2,0x2
     704:	91038393          	addi	t2,t2,-1776 # 2010 <test_data>
     708:	0b838393          	addi	t2,t2,184
     70c:	fc000113          	li	sp,-64
     710:	002383b3          	add	t2,t2,sp
     714:	0403a303          	lw	t1,64(t2)
     718:	0060a223          	sw	t1,4(ra)
     71c:	00002417          	auipc	s0,0x2
     720:	8f440413          	addi	s0,s0,-1804 # 2010 <test_data>
     724:	0bc40413          	addi	s0,s0,188
     728:	f8000113          	li	sp,-128
     72c:	00240433          	add	s0,s0,sp
     730:	08042383          	lw	t2,128(s0)
     734:	0070a423          	sw	t2,8(ra)
     738:	00002097          	auipc	ra,0x2
     73c:	aa808093          	addi	ra,ra,-1368 # 21e0 <signature_17_0>
     740:	00002497          	auipc	s1,0x2
     744:	8d048493          	addi	s1,s1,-1840 # 2010 <test_data>
     748:	0c048493          	addi	s1,s1,192
     74c:	f0000113          	li	sp,-256
     750:	002484b3          	add	s1,s1,sp
     754:	1004a403          	lw	s0,256(s1)
     758:	0080a023          	sw	s0,0(ra)
     75c:	00002517          	auipc	a0,0x2
     760:	8b450513          	addi	a0,a0,-1868 # 2010 <test_data>
     764:	0c450513          	addi	a0,a0,196
     768:	e0000113          	li	sp,-512
     76c:	00250533          	add	a0,a0,sp
     770:	20052483          	lw	s1,512(a0)
     774:	0090a223          	sw	s1,4(ra)
     778:	00002597          	auipc	a1,0x2
     77c:	89858593          	addi	a1,a1,-1896 # 2010 <test_data>
     780:	0c858593          	addi	a1,a1,200
     784:	c0000113          	li	sp,-1024
     788:	002585b3          	add	a1,a1,sp
     78c:	4005a503          	lw	a0,1024(a1)
     790:	00a0a423          	sw	a0,8(ra)
     794:	00002097          	auipc	ra,0x2
     798:	a5808093          	addi	ra,ra,-1448 # 21ec <signature_18_0>
     79c:	00002617          	auipc	a2,0x2
     7a0:	87460613          	addi	a2,a2,-1932 # 2010 <test_data>
     7a4:	0cc60613          	addi	a2,a2,204
     7a8:	00001137          	lui	sp,0x1
     7ac:	80010113          	addi	sp,sp,-2048 # 800 <rvtest_code_begin+0x688>
     7b0:	00260633          	add	a2,a2,sp
     7b4:	80062583          	lw	a1,-2048(a2)
     7b8:	00b0a023          	sw	a1,0(ra)
     7bc:	00002697          	auipc	a3,0x2
     7c0:	85468693          	addi	a3,a3,-1964 # 2010 <test_data>
     7c4:	0d068693          	addi	a3,a3,208
     7c8:	00200113          	li	sp,2
     7cc:	002686b3          	add	a3,a3,sp
     7d0:	ffe6a603          	lw	a2,-2(a3)
     7d4:	00c0a223          	sw	a2,4(ra)
     7d8:	00002717          	auipc	a4,0x2
     7dc:	83870713          	addi	a4,a4,-1992 # 2010 <test_data>
     7e0:	0d470713          	addi	a4,a4,212
     7e4:	00300113          	li	sp,3
     7e8:	00270733          	add	a4,a4,sp
     7ec:	ffd72683          	lw	a3,-3(a4)
     7f0:	00d0a423          	sw	a3,8(ra)
     7f4:	00002097          	auipc	ra,0x2
     7f8:	a0408093          	addi	ra,ra,-1532 # 21f8 <signature_19_0>
     7fc:	00002797          	auipc	a5,0x2
     800:	81478793          	addi	a5,a5,-2028 # 2010 <test_data>
     804:	0d878793          	addi	a5,a5,216
     808:	00500113          	li	sp,5
     80c:	002787b3          	add	a5,a5,sp
     810:	ffb7a703          	lw	a4,-5(a5)
     814:	00e0a023          	sw	a4,0(ra)
     818:	00001817          	auipc	a6,0x1
     81c:	7f880813          	addi	a6,a6,2040 # 2010 <test_data>
     820:	0dc80813          	addi	a6,a6,220
     824:	00900113          	li	sp,9
     828:	00280833          	add	a6,a6,sp
     82c:	ff782783          	lw	a5,-9(a6)
     830:	00f0a223          	sw	a5,4(ra)
     834:	00001897          	auipc	a7,0x1
     838:	7dc88893          	addi	a7,a7,2012 # 2010 <test_data>
     83c:	0e088893          	addi	a7,a7,224
     840:	01100113          	li	sp,17
     844:	002888b3          	add	a7,a7,sp
     848:	fef8a803          	lw	a6,-17(a7)
     84c:	0100a423          	sw	a6,8(ra)
     850:	00002097          	auipc	ra,0x2
     854:	9b408093          	addi	ra,ra,-1612 # 2204 <signature_20_0>
     858:	00001917          	auipc	s2,0x1
     85c:	7b890913          	addi	s2,s2,1976 # 2010 <test_data>
     860:	0e490913          	addi	s2,s2,228
     864:	02100113          	li	sp,33
     868:	00290933          	add	s2,s2,sp
     86c:	fdf92883          	lw	a7,-33(s2)
     870:	0110a023          	sw	a7,0(ra)
     874:	00001997          	auipc	s3,0x1
     878:	79c98993          	addi	s3,s3,1948 # 2010 <test_data>
     87c:	0e898993          	addi	s3,s3,232
     880:	04100113          	li	sp,65
     884:	002989b3          	add	s3,s3,sp
     888:	fbf9a903          	lw	s2,-65(s3)
     88c:	0120a223          	sw	s2,4(ra)
     890:	00001a17          	auipc	s4,0x1
     894:	780a0a13          	addi	s4,s4,1920 # 2010 <test_data>
     898:	0eca0a13          	addi	s4,s4,236
     89c:	08100113          	li	sp,129
     8a0:	002a0a33          	add	s4,s4,sp
     8a4:	f7fa2983          	lw	s3,-129(s4)
     8a8:	0130a423          	sw	s3,8(ra)
     8ac:	00002097          	auipc	ra,0x2
     8b0:	96408093          	addi	ra,ra,-1692 # 2210 <signature_21_0>
     8b4:	00001a97          	auipc	s5,0x1
     8b8:	75ca8a93          	addi	s5,s5,1884 # 2010 <test_data>
     8bc:	0f0a8a93          	addi	s5,s5,240
     8c0:	10100113          	li	sp,257
     8c4:	002a8ab3          	add	s5,s5,sp
     8c8:	effaaa03          	lw	s4,-257(s5)
     8cc:	0140a023          	sw	s4,0(ra)
     8d0:	00001b17          	auipc	s6,0x1
     8d4:	740b0b13          	addi	s6,s6,1856 # 2010 <test_data>
     8d8:	0f4b0b13          	addi	s6,s6,244
     8dc:	20100113          	li	sp,513
     8e0:	002b0b33          	add	s6,s6,sp
     8e4:	dffb2a83          	lw	s5,-513(s6)
     8e8:	0150a223          	sw	s5,4(ra)
     8ec:	00001b97          	auipc	s7,0x1
     8f0:	724b8b93          	addi	s7,s7,1828 # 2010 <test_data>
     8f4:	0f8b8b93          	addi	s7,s7,248
     8f8:	40100113          	li	sp,1025
     8fc:	002b8bb3          	add	s7,s7,sp
     900:	bffbab03          	lw	s6,-1025(s7)
     904:	0160a423          	sw	s6,8(ra)
     908:	00002097          	auipc	ra,0x2
     90c:	91408093          	addi	ra,ra,-1772 # 221c <signature_22_0>
     910:	00001c17          	auipc	s8,0x1
     914:	700c0c13          	addi	s8,s8,1792 # 2010 <test_data>
     918:	0fcc0c13          	addi	s8,s8,252
     91c:	80100113          	li	sp,-2047
     920:	002c0c33          	add	s8,s8,sp
     924:	7ffc2b83          	lw	s7,2047(s8)
     928:	0170a023          	sw	s7,0(ra)
     92c:	00001c97          	auipc	s9,0x1
     930:	6e4c8c93          	addi	s9,s9,1764 # 2010 <test_data>
     934:	100c8c93          	addi	s9,s9,256
     938:	00200113          	li	sp,2
     93c:	002c8cb3          	add	s9,s9,sp
     940:	ffecac03          	lw	s8,-2(s9)
     944:	0180a223          	sw	s8,4(ra)
     948:	00001d17          	auipc	s10,0x1
     94c:	6c8d0d13          	addi	s10,s10,1736 # 2010 <test_data>
     950:	104d0d13          	addi	s10,s10,260
     954:	00300113          	li	sp,3
     958:	002d0d33          	add	s10,s10,sp
     95c:	ffdd2c83          	lw	s9,-3(s10)
     960:	0190a423          	sw	s9,8(ra)
     964:	00002097          	auipc	ra,0x2
     968:	8c408093          	addi	ra,ra,-1852 # 2228 <signature_23_0>
     96c:	00001d97          	auipc	s11,0x1
     970:	6a4d8d93          	addi	s11,s11,1700 # 2010 <test_data>
     974:	000d8d93          	mv	s11,s11
     978:	00500113          	li	sp,5
     97c:	002d8db3          	add	s11,s11,sp
     980:	ffbdad03          	lw	s10,-5(s11)
     984:	01a0a023          	sw	s10,0(ra)
     988:	00001e17          	auipc	t3,0x1
     98c:	688e0e13          	addi	t3,t3,1672 # 2010 <test_data>
     990:	004e0e13          	addi	t3,t3,4
     994:	00900113          	li	sp,9
     998:	002e0e33          	add	t3,t3,sp
     99c:	ff7e2d83          	lw	s11,-9(t3)
     9a0:	01b0a223          	sw	s11,4(ra)
     9a4:	00001e97          	auipc	t4,0x1
     9a8:	66ce8e93          	addi	t4,t4,1644 # 2010 <test_data>
     9ac:	008e8e93          	addi	t4,t4,8
     9b0:	01100113          	li	sp,17
     9b4:	002e8eb3          	add	t4,t4,sp
     9b8:	fefeae03          	lw	t3,-17(t4)
     9bc:	01c0a423          	sw	t3,8(ra)
     9c0:	00002117          	auipc	sp,0x2
     9c4:	87410113          	addi	sp,sp,-1932 # 2234 <signature_24_0>
     9c8:	00001f17          	auipc	t5,0x1
     9cc:	648f0f13          	addi	t5,t5,1608 # 2010 <test_data>
     9d0:	00cf0f13          	addi	t5,t5,12
     9d4:	02100193          	li	gp,33
     9d8:	003f0f33          	add	t5,t5,gp
     9dc:	fdff2e83          	lw	t4,-33(t5)
     9e0:	01d12023          	sw	t4,0(sp)
     9e4:	00001f97          	auipc	t6,0x1
     9e8:	62cf8f93          	addi	t6,t6,1580 # 2010 <test_data>
     9ec:	010f8f93          	addi	t6,t6,16
     9f0:	04100193          	li	gp,65
     9f4:	003f8fb3          	add	t6,t6,gp
     9f8:	fbffaf03          	lw	t5,-65(t6)
     9fc:	01e12223          	sw	t5,4(sp)
     a00:	00001097          	auipc	ra,0x1
     a04:	61008093          	addi	ra,ra,1552 # 2010 <test_data>
     a08:	01408093          	addi	ra,ra,20
     a0c:	08100193          	li	gp,129
     a10:	003080b3          	add	ra,ra,gp
     a14:	f7f0af83          	lw	t6,-129(ra)
     a18:	01f12423          	sw	t6,8(sp)
     a1c:	00002217          	auipc	tp,0x2
     a20:	82420213          	addi	tp,tp,-2012 # 2240 <signature_25_0>
     a24:	00001117          	auipc	sp,0x1
     a28:	5ec10113          	addi	sp,sp,1516 # 2010 <test_data>
     a2c:	01810113          	addi	sp,sp,24
     a30:	10100293          	li	t0,257
     a34:	00510133          	add	sp,sp,t0
     a38:	eff12083          	lw	ra,-257(sp)
     a3c:	00122023          	sw	ra,0(tp) # 0 <rvtest_entry_point>
     a40:	00001117          	auipc	sp,0x1
     a44:	5d010113          	addi	sp,sp,1488 # 2010 <test_data>
     a48:	01c10113          	addi	sp,sp,28
     a4c:	20100293          	li	t0,513
     a50:	00510133          	add	sp,sp,t0
     a54:	dff12083          	lw	ra,-513(sp)
     a58:	00122223          	sw	ra,4(tp) # 4 <trap_vector>
     a5c:	00001197          	auipc	gp,0x1
     a60:	5b418193          	addi	gp,gp,1460 # 2010 <test_data>
     a64:	02018193          	addi	gp,gp,32
     a68:	40100293          	li	t0,1025
     a6c:	005181b3          	add	gp,gp,t0
     a70:	bff1a103          	lw	sp,-1025(gp)
     a74:	00222423          	sw	sp,8(tp) # 8 <trap_vector+0x4>
     a78:	00001097          	auipc	ra,0x1
     a7c:	7d408093          	addi	ra,ra,2004 # 224c <signature_26_0>
     a80:	00001217          	auipc	tp,0x1
     a84:	59020213          	addi	tp,tp,1424 # 2010 <test_data>
     a88:	02420213          	addi	tp,tp,36 # 24 <trap_vector+0x20>
     a8c:	80100113          	li	sp,-2047
     a90:	00220233          	add	tp,tp,sp
     a94:	7ff22183          	lw	gp,2047(tp) # 7ff <rvtest_code_begin+0x687>
     a98:	0030a023          	sw	gp,0(ra)
     a9c:	00001297          	auipc	t0,0x1
     aa0:	57428293          	addi	t0,t0,1396 # 2010 <test_data>
     aa4:	02828293          	addi	t0,t0,40
     aa8:	00200113          	li	sp,2
     aac:	002282b3          	add	t0,t0,sp
     ab0:	ffe2a203          	lw	tp,-2(t0)
     ab4:	0040a223          	sw	tp,4(ra)
     ab8:	00001317          	auipc	t1,0x1
     abc:	55830313          	addi	t1,t1,1368 # 2010 <test_data>
     ac0:	02c30313          	addi	t1,t1,44
     ac4:	00300113          	li	sp,3
     ac8:	00230333          	add	t1,t1,sp
     acc:	ffd32283          	lw	t0,-3(t1)
     ad0:	0050a423          	sw	t0,8(ra)
     ad4:	00001097          	auipc	ra,0x1
     ad8:	78408093          	addi	ra,ra,1924 # 2258 <signature_27_0>
     adc:	00001397          	auipc	t2,0x1
     ae0:	53438393          	addi	t2,t2,1332 # 2010 <test_data>
     ae4:	03038393          	addi	t2,t2,48
     ae8:	00500113          	li	sp,5
     aec:	002383b3          	add	t2,t2,sp
     af0:	ffb3a303          	lw	t1,-5(t2)
     af4:	0060a023          	sw	t1,0(ra)
     af8:	00001417          	auipc	s0,0x1
     afc:	51840413          	addi	s0,s0,1304 # 2010 <test_data>
     b00:	03440413          	addi	s0,s0,52
     b04:	00900113          	li	sp,9
     b08:	00240433          	add	s0,s0,sp
     b0c:	ff742383          	lw	t2,-9(s0)
     b10:	0070a223          	sw	t2,4(ra)
     b14:	00001497          	auipc	s1,0x1
     b18:	4fc48493          	addi	s1,s1,1276 # 2010 <test_data>
     b1c:	03848493          	addi	s1,s1,56
     b20:	01100113          	li	sp,17
     b24:	002484b3          	add	s1,s1,sp
     b28:	fef4a403          	lw	s0,-17(s1)
     b2c:	0080a423          	sw	s0,8(ra)
     b30:	00001097          	auipc	ra,0x1
     b34:	73408093          	addi	ra,ra,1844 # 2264 <signature_28_0>
     b38:	00001517          	auipc	a0,0x1
     b3c:	4d850513          	addi	a0,a0,1240 # 2010 <test_data>
     b40:	03c50513          	addi	a0,a0,60
     b44:	02100113          	li	sp,33
     b48:	00250533          	add	a0,a0,sp
     b4c:	fdf52483          	lw	s1,-33(a0)
     b50:	0090a023          	sw	s1,0(ra)
     b54:	00001597          	auipc	a1,0x1
     b58:	4bc58593          	addi	a1,a1,1212 # 2010 <test_data>
     b5c:	04058593          	addi	a1,a1,64
     b60:	04100113          	li	sp,65
     b64:	002585b3          	add	a1,a1,sp
     b68:	fbf5a503          	lw	a0,-65(a1)
     b6c:	00a0a223          	sw	a0,4(ra)
     b70:	00001617          	auipc	a2,0x1
     b74:	4a060613          	addi	a2,a2,1184 # 2010 <test_data>
     b78:	04460613          	addi	a2,a2,68
     b7c:	08100113          	li	sp,129
     b80:	00260633          	add	a2,a2,sp
     b84:	f7f62583          	lw	a1,-129(a2)
     b88:	00b0a423          	sw	a1,8(ra)
     b8c:	00001097          	auipc	ra,0x1
     b90:	6e408093          	addi	ra,ra,1764 # 2270 <signature_29_0>
     b94:	00001697          	auipc	a3,0x1
     b98:	47c68693          	addi	a3,a3,1148 # 2010 <test_data>
     b9c:	04868693          	addi	a3,a3,72
     ba0:	10100113          	li	sp,257
     ba4:	002686b3          	add	a3,a3,sp
     ba8:	eff6a603          	lw	a2,-257(a3)
     bac:	00c0a023          	sw	a2,0(ra)
     bb0:	00001717          	auipc	a4,0x1
     bb4:	46070713          	addi	a4,a4,1120 # 2010 <test_data>
     bb8:	04c70713          	addi	a4,a4,76
     bbc:	20100113          	li	sp,513
     bc0:	00270733          	add	a4,a4,sp
     bc4:	dff72683          	lw	a3,-513(a4)
     bc8:	00d0a223          	sw	a3,4(ra)
     bcc:	00001797          	auipc	a5,0x1
     bd0:	44478793          	addi	a5,a5,1092 # 2010 <test_data>
     bd4:	05078793          	addi	a5,a5,80
     bd8:	40100113          	li	sp,1025
     bdc:	002787b3          	add	a5,a5,sp
     be0:	bff7a703          	lw	a4,-1025(a5)
     be4:	00e0a423          	sw	a4,8(ra)
     be8:	00001097          	auipc	ra,0x1
     bec:	69408093          	addi	ra,ra,1684 # 227c <signature_30_0>
     bf0:	00001817          	auipc	a6,0x1
     bf4:	42080813          	addi	a6,a6,1056 # 2010 <test_data>
     bf8:	05480813          	addi	a6,a6,84
     bfc:	80100113          	li	sp,-2047
     c00:	00280833          	add	a6,a6,sp
     c04:	7ff82783          	lw	a5,2047(a6)
     c08:	00f0a023          	sw	a5,0(ra)
     c0c:	00001897          	auipc	a7,0x1
     c10:	40488893          	addi	a7,a7,1028 # 2010 <test_data>
     c14:	05888893          	addi	a7,a7,88
     c18:	00200113          	li	sp,2
     c1c:	002888b3          	add	a7,a7,sp
     c20:	ffe8a803          	lw	a6,-2(a7)
     c24:	0100a223          	sw	a6,4(ra)
     c28:	00001917          	auipc	s2,0x1
     c2c:	3e890913          	addi	s2,s2,1000 # 2010 <test_data>
     c30:	05c90913          	addi	s2,s2,92
     c34:	00300113          	li	sp,3
     c38:	00290933          	add	s2,s2,sp
     c3c:	ffd92883          	lw	a7,-3(s2)
     c40:	0110a423          	sw	a7,8(ra)
     c44:	00001097          	auipc	ra,0x1
     c48:	64408093          	addi	ra,ra,1604 # 2288 <signature_31_0>
     c4c:	00001997          	auipc	s3,0x1
     c50:	3c498993          	addi	s3,s3,964 # 2010 <test_data>
     c54:	06098993          	addi	s3,s3,96
     c58:	00500113          	li	sp,5
     c5c:	002989b3          	add	s3,s3,sp
     c60:	ffb9a903          	lw	s2,-5(s3)
     c64:	0120a023          	sw	s2,0(ra)
     c68:	00001a17          	auipc	s4,0x1
     c6c:	3a8a0a13          	addi	s4,s4,936 # 2010 <test_data>
     c70:	064a0a13          	addi	s4,s4,100
     c74:	00900113          	li	sp,9
     c78:	002a0a33          	add	s4,s4,sp
     c7c:	ff7a2983          	lw	s3,-9(s4)
     c80:	0130a223          	sw	s3,4(ra)
     c84:	00001a97          	auipc	s5,0x1
     c88:	38ca8a93          	addi	s5,s5,908 # 2010 <test_data>
     c8c:	068a8a93          	addi	s5,s5,104
     c90:	01100113          	li	sp,17
     c94:	002a8ab3          	add	s5,s5,sp
     c98:	fefaaa03          	lw	s4,-17(s5)
     c9c:	0140a423          	sw	s4,8(ra)
     ca0:	00001097          	auipc	ra,0x1
     ca4:	5f408093          	addi	ra,ra,1524 # 2294 <signature_32_0>
     ca8:	00001b17          	auipc	s6,0x1
     cac:	368b0b13          	addi	s6,s6,872 # 2010 <test_data>
     cb0:	06cb0b13          	addi	s6,s6,108
     cb4:	02100113          	li	sp,33
     cb8:	002b0b33          	add	s6,s6,sp
     cbc:	fdfb2a83          	lw	s5,-33(s6)
     cc0:	0150a023          	sw	s5,0(ra)
     cc4:	00001b97          	auipc	s7,0x1
     cc8:	34cb8b93          	addi	s7,s7,844 # 2010 <test_data>
     ccc:	070b8b93          	addi	s7,s7,112
     cd0:	04100113          	li	sp,65
     cd4:	002b8bb3          	add	s7,s7,sp
     cd8:	fbfbab03          	lw	s6,-65(s7)
     cdc:	0160a223          	sw	s6,4(ra)
     ce0:	00001c17          	auipc	s8,0x1
     ce4:	330c0c13          	addi	s8,s8,816 # 2010 <test_data>
     ce8:	074c0c13          	addi	s8,s8,116
     cec:	08100113          	li	sp,129
     cf0:	002c0c33          	add	s8,s8,sp
     cf4:	f7fc2b83          	lw	s7,-129(s8)
     cf8:	0170a423          	sw	s7,8(ra)
     cfc:	00001097          	auipc	ra,0x1
     d00:	5a408093          	addi	ra,ra,1444 # 22a0 <signature_33_0>
     d04:	00001c97          	auipc	s9,0x1
     d08:	30cc8c93          	addi	s9,s9,780 # 2010 <test_data>
     d0c:	078c8c93          	addi	s9,s9,120
     d10:	10100113          	li	sp,257
     d14:	002c8cb3          	add	s9,s9,sp
     d18:	effcac03          	lw	s8,-257(s9)
     d1c:	0180a023          	sw	s8,0(ra)
     d20:	00001d17          	auipc	s10,0x1
     d24:	2f0d0d13          	addi	s10,s10,752 # 2010 <test_data>
     d28:	07cd0d13          	addi	s10,s10,124
     d2c:	20100113          	li	sp,513
     d30:	002d0d33          	add	s10,s10,sp
     d34:	dffd2c83          	lw	s9,-513(s10)
     d38:	0190a223          	sw	s9,4(ra)
     d3c:	00001d97          	auipc	s11,0x1
     d40:	2d4d8d93          	addi	s11,s11,724 # 2010 <test_data>
     d44:	080d8d93          	addi	s11,s11,128
     d48:	40100113          	li	sp,1025
     d4c:	002d8db3          	add	s11,s11,sp
     d50:	bffdad03          	lw	s10,-1025(s11)
     d54:	01a0a423          	sw	s10,8(ra)
     d58:	00001097          	auipc	ra,0x1
     d5c:	55408093          	addi	ra,ra,1364 # 22ac <signature_34_0>
     d60:	00001e17          	auipc	t3,0x1
     d64:	2b0e0e13          	addi	t3,t3,688 # 2010 <test_data>
     d68:	084e0e13          	addi	t3,t3,132
     d6c:	80100113          	li	sp,-2047
     d70:	002e0e33          	add	t3,t3,sp
     d74:	7ffe2d83          	lw	s11,2047(t3)
     d78:	01b0a023          	sw	s11,0(ra)
     d7c:	00001e97          	auipc	t4,0x1
     d80:	294e8e93          	addi	t4,t4,660 # 2010 <test_data>
     d84:	088e8e93          	addi	t4,t4,136
     d88:	00200113          	li	sp,2
     d8c:	002e8eb3          	add	t4,t4,sp
     d90:	ffeeae03          	lw	t3,-2(t4)
     d94:	01c0a223          	sw	t3,4(ra)
     d98:	00001f17          	auipc	t5,0x1
     d9c:	278f0f13          	addi	t5,t5,632 # 2010 <test_data>
     da0:	08cf0f13          	addi	t5,t5,140
     da4:	00300113          	li	sp,3
     da8:	002f0f33          	add	t5,t5,sp
     dac:	ffdf2e83          	lw	t4,-3(t5)
     db0:	01d0a423          	sw	t4,8(ra)
     db4:	00001197          	auipc	gp,0x1
     db8:	50418193          	addi	gp,gp,1284 # 22b8 <signature_35_0>
     dbc:	00001f97          	auipc	t6,0x1
     dc0:	254f8f93          	addi	t6,t6,596 # 2010 <test_data>
     dc4:	090f8f93          	addi	t6,t6,144
     dc8:	00500213          	li	tp,5
     dcc:	004f8fb3          	add	t6,t6,tp
     dd0:	ffbfaf03          	lw	t5,-5(t6)
     dd4:	01e1a023          	sw	t5,0(gp)
     dd8:	00001097          	auipc	ra,0x1
     ddc:	23808093          	addi	ra,ra,568 # 2010 <test_data>
     de0:	09408093          	addi	ra,ra,148
     de4:	00900213          	li	tp,9
     de8:	004080b3          	add	ra,ra,tp
     dec:	ff70af83          	lw	t6,-9(ra)
     df0:	01f1a223          	sw	t6,4(gp)
     df4:	00001117          	auipc	sp,0x1
     df8:	21c10113          	addi	sp,sp,540 # 2010 <test_data>
     dfc:	09810113          	addi	sp,sp,152
     e00:	fff00213          	li	tp,-1
     e04:	00410133          	add	sp,sp,tp
     e08:	00112083          	lw	ra,1(sp)
     e0c:	0011a423          	sw	ra,8(gp)
     e10:	00001297          	auipc	t0,0x1
     e14:	4b428293          	addi	t0,t0,1204 # 22c4 <signature_36_0>
     e18:	00001117          	auipc	sp,0x1
     e1c:	1f810113          	addi	sp,sp,504 # 2010 <test_data>
     e20:	09c10113          	addi	sp,sp,156
     e24:	ffe00313          	li	t1,-2
     e28:	00610133          	add	sp,sp,t1
     e2c:	00212083          	lw	ra,2(sp)
     e30:	0012a023          	sw	ra,0(t0)
     e34:	00001197          	auipc	gp,0x1
     e38:	1dc18193          	addi	gp,gp,476 # 2010 <test_data>
     e3c:	0a018193          	addi	gp,gp,160
     e40:	ffc00313          	li	t1,-4
     e44:	006181b3          	add	gp,gp,t1
     e48:	0041a103          	lw	sp,4(gp)
     e4c:	0022a223          	sw	sp,4(t0)
     e50:	00001217          	auipc	tp,0x1
     e54:	1c020213          	addi	tp,tp,448 # 2010 <test_data>
     e58:	0a420213          	addi	tp,tp,164 # a4 <rvtest_init+0x24>
     e5c:	ff800313          	li	t1,-8
     e60:	00620233          	add	tp,tp,t1
     e64:	00822183          	lw	gp,8(tp) # 8 <trap_vector+0x4>
     e68:	0032a423          	sw	gp,8(t0)
     e6c:	00001097          	auipc	ra,0x1
     e70:	46408093          	addi	ra,ra,1124 # 22d0 <signature_37_0>
     e74:	00001297          	auipc	t0,0x1
     e78:	19c28293          	addi	t0,t0,412 # 2010 <test_data>
     e7c:	0a828293          	addi	t0,t0,168
     e80:	ff000113          	li	sp,-16
     e84:	002282b3          	add	t0,t0,sp
     e88:	0102a203          	lw	tp,16(t0)
     e8c:	0040a023          	sw	tp,0(ra)
     e90:	00001317          	auipc	t1,0x1
     e94:	18030313          	addi	t1,t1,384 # 2010 <test_data>
     e98:	0ac30313          	addi	t1,t1,172
     e9c:	fe000113          	li	sp,-32
     ea0:	00230333          	add	t1,t1,sp
     ea4:	02032283          	lw	t0,32(t1)
     ea8:	0050a223          	sw	t0,4(ra)
     eac:	00001397          	auipc	t2,0x1
     eb0:	16438393          	addi	t2,t2,356 # 2010 <test_data>
     eb4:	0b038393          	addi	t2,t2,176
     eb8:	fc000113          	li	sp,-64
     ebc:	002383b3          	add	t2,t2,sp
     ec0:	0403a303          	lw	t1,64(t2)
     ec4:	0060a423          	sw	t1,8(ra)
     ec8:	00001097          	auipc	ra,0x1
     ecc:	41408093          	addi	ra,ra,1044 # 22dc <signature_38_0>
     ed0:	00001417          	auipc	s0,0x1
     ed4:	14040413          	addi	s0,s0,320 # 2010 <test_data>
     ed8:	0b440413          	addi	s0,s0,180
     edc:	f8000113          	li	sp,-128
     ee0:	00240433          	add	s0,s0,sp
     ee4:	08042383          	lw	t2,128(s0)
     ee8:	0070a023          	sw	t2,0(ra)
     eec:	00001497          	auipc	s1,0x1
     ef0:	12448493          	addi	s1,s1,292 # 2010 <test_data>
     ef4:	0b848493          	addi	s1,s1,184
     ef8:	f0000113          	li	sp,-256
     efc:	002484b3          	add	s1,s1,sp
     f00:	1004a403          	lw	s0,256(s1)
     f04:	0080a223          	sw	s0,4(ra)
     f08:	00001517          	auipc	a0,0x1
     f0c:	10850513          	addi	a0,a0,264 # 2010 <test_data>
     f10:	0bc50513          	addi	a0,a0,188
     f14:	e0000113          	li	sp,-512
     f18:	00250533          	add	a0,a0,sp
     f1c:	20052483          	lw	s1,512(a0)
     f20:	0090a423          	sw	s1,8(ra)
     f24:	00001097          	auipc	ra,0x1
     f28:	3c408093          	addi	ra,ra,964 # 22e8 <signature_39_0>
     f2c:	00001597          	auipc	a1,0x1
     f30:	0e458593          	addi	a1,a1,228 # 2010 <test_data>
     f34:	0c058593          	addi	a1,a1,192
     f38:	c0000113          	li	sp,-1024
     f3c:	002585b3          	add	a1,a1,sp
     f40:	4005a503          	lw	a0,1024(a1)
     f44:	00a0a023          	sw	a0,0(ra)
     f48:	00001617          	auipc	a2,0x1
     f4c:	0c860613          	addi	a2,a2,200 # 2010 <test_data>
     f50:	0c460613          	addi	a2,a2,196
     f54:	00001137          	lui	sp,0x1
     f58:	80010113          	addi	sp,sp,-2048 # 800 <rvtest_code_begin+0x688>
     f5c:	00260633          	add	a2,a2,sp
     f60:	80062583          	lw	a1,-2048(a2)
     f64:	00b0a223          	sw	a1,4(ra)
     f68:	00001697          	auipc	a3,0x1
     f6c:	0a868693          	addi	a3,a3,168 # 2010 <test_data>
     f70:	0c868693          	addi	a3,a3,200
     f74:	00200113          	li	sp,2
     f78:	002686b3          	add	a3,a3,sp
     f7c:	ffe6a603          	lw	a2,-2(a3)
     f80:	00c0a423          	sw	a2,8(ra)
     f84:	00001097          	auipc	ra,0x1
     f88:	37008093          	addi	ra,ra,880 # 22f4 <signature_40_0>
     f8c:	00001717          	auipc	a4,0x1
     f90:	08470713          	addi	a4,a4,132 # 2010 <test_data>
     f94:	0cc70713          	addi	a4,a4,204
     f98:	00300113          	li	sp,3
     f9c:	00270733          	add	a4,a4,sp
     fa0:	ffd72683          	lw	a3,-3(a4)
     fa4:	00d0a023          	sw	a3,0(ra)
     fa8:	00001797          	auipc	a5,0x1
     fac:	06878793          	addi	a5,a5,104 # 2010 <test_data>
     fb0:	0d078793          	addi	a5,a5,208
     fb4:	00500113          	li	sp,5
     fb8:	002787b3          	add	a5,a5,sp
     fbc:	ffb7a703          	lw	a4,-5(a5)
     fc0:	00e0a223          	sw	a4,4(ra)
     fc4:	00001817          	auipc	a6,0x1
     fc8:	04c80813          	addi	a6,a6,76 # 2010 <test_data>
     fcc:	0d480813          	addi	a6,a6,212
     fd0:	00900113          	li	sp,9
     fd4:	00280833          	add	a6,a6,sp
     fd8:	ff782783          	lw	a5,-9(a6)
     fdc:	00f0a423          	sw	a5,8(ra)
     fe0:	00001097          	auipc	ra,0x1
     fe4:	32008093          	addi	ra,ra,800 # 2300 <signature_41_0>
     fe8:	00001897          	auipc	a7,0x1
     fec:	02888893          	addi	a7,a7,40 # 2010 <test_data>
     ff0:	0d888893          	addi	a7,a7,216
     ff4:	01100113          	li	sp,17
     ff8:	002888b3          	add	a7,a7,sp
     ffc:	fef8a803          	lw	a6,-17(a7)
    1000:	0100a023          	sw	a6,0(ra)
    1004:	00001917          	auipc	s2,0x1
    1008:	00c90913          	addi	s2,s2,12 # 2010 <test_data>
    100c:	0dc90913          	addi	s2,s2,220
    1010:	02100113          	li	sp,33
    1014:	00290933          	add	s2,s2,sp
    1018:	fdf92883          	lw	a7,-33(s2)
    101c:	0110a223          	sw	a7,4(ra)
    1020:	00001997          	auipc	s3,0x1
    1024:	ff098993          	addi	s3,s3,-16 # 2010 <test_data>
    1028:	0e098993          	addi	s3,s3,224
    102c:	04100113          	li	sp,65
    1030:	002989b3          	add	s3,s3,sp
    1034:	fbf9a903          	lw	s2,-65(s3)
    1038:	0120a423          	sw	s2,8(ra)
    103c:	00001097          	auipc	ra,0x1
    1040:	2d008093          	addi	ra,ra,720 # 230c <signature_42_0>
    1044:	00001a17          	auipc	s4,0x1
    1048:	fcca0a13          	addi	s4,s4,-52 # 2010 <test_data>
    104c:	0e4a0a13          	addi	s4,s4,228
    1050:	08100113          	li	sp,129
    1054:	002a0a33          	add	s4,s4,sp
    1058:	f7fa2983          	lw	s3,-129(s4)
    105c:	0130a023          	sw	s3,0(ra)
    1060:	00001a97          	auipc	s5,0x1
    1064:	fb0a8a93          	addi	s5,s5,-80 # 2010 <test_data>
    1068:	0e8a8a93          	addi	s5,s5,232
    106c:	10100113          	li	sp,257
    1070:	002a8ab3          	add	s5,s5,sp
    1074:	effaaa03          	lw	s4,-257(s5)
    1078:	0140a223          	sw	s4,4(ra)
    107c:	00001b17          	auipc	s6,0x1
    1080:	f94b0b13          	addi	s6,s6,-108 # 2010 <test_data>
    1084:	0ecb0b13          	addi	s6,s6,236
    1088:	20100113          	li	sp,513
    108c:	002b0b33          	add	s6,s6,sp
    1090:	dffb2a83          	lw	s5,-513(s6)
    1094:	0150a423          	sw	s5,8(ra)
    1098:	00001097          	auipc	ra,0x1
    109c:	28008093          	addi	ra,ra,640 # 2318 <signature_43_0>
    10a0:	00001b97          	auipc	s7,0x1
    10a4:	f70b8b93          	addi	s7,s7,-144 # 2010 <test_data>
    10a8:	0f0b8b93          	addi	s7,s7,240
    10ac:	40100113          	li	sp,1025
    10b0:	002b8bb3          	add	s7,s7,sp
    10b4:	bffbab03          	lw	s6,-1025(s7)
    10b8:	0160a023          	sw	s6,0(ra)
    10bc:	00001c17          	auipc	s8,0x1
    10c0:	f54c0c13          	addi	s8,s8,-172 # 2010 <test_data>
    10c4:	0f4c0c13          	addi	s8,s8,244
    10c8:	80100113          	li	sp,-2047
    10cc:	002c0c33          	add	s8,s8,sp
    10d0:	7ffc2b83          	lw	s7,2047(s8)
    10d4:	0170a223          	sw	s7,4(ra)
    10d8:	00001c97          	auipc	s9,0x1
    10dc:	f38c8c93          	addi	s9,s9,-200 # 2010 <test_data>
    10e0:	0f8c8c93          	addi	s9,s9,248
    10e4:	00200113          	li	sp,2
    10e8:	002c8cb3          	add	s9,s9,sp
    10ec:	ffecac03          	lw	s8,-2(s9)
    10f0:	0180a423          	sw	s8,8(ra)
    10f4:	00001097          	auipc	ra,0x1
    10f8:	23008093          	addi	ra,ra,560 # 2324 <signature_44_0>
    10fc:	00001d17          	auipc	s10,0x1
    1100:	f14d0d13          	addi	s10,s10,-236 # 2010 <test_data>
    1104:	0fcd0d13          	addi	s10,s10,252
    1108:	00300113          	li	sp,3
    110c:	002d0d33          	add	s10,s10,sp
    1110:	ffdd2c83          	lw	s9,-3(s10)
    1114:	0190a023          	sw	s9,0(ra)
    1118:	00001d97          	auipc	s11,0x1
    111c:	ef8d8d93          	addi	s11,s11,-264 # 2010 <test_data>
    1120:	100d8d93          	addi	s11,s11,256
    1124:	00500113          	li	sp,5
    1128:	002d8db3          	add	s11,s11,sp
    112c:	ffbdad03          	lw	s10,-5(s11)
    1130:	01a0a223          	sw	s10,4(ra)
    1134:	00001e17          	auipc	t3,0x1
    1138:	edce0e13          	addi	t3,t3,-292 # 2010 <test_data>
    113c:	104e0e13          	addi	t3,t3,260
    1140:	00900113          	li	sp,9
    1144:	002e0e33          	add	t3,t3,sp
    1148:	ff7e2d83          	lw	s11,-9(t3)
    114c:	01b0a423          	sw	s11,8(ra)
    1150:	00001097          	auipc	ra,0x1
    1154:	1e008093          	addi	ra,ra,480 # 2330 <signature_45_0>
    1158:	00001e97          	auipc	t4,0x1
    115c:	eb8e8e93          	addi	t4,t4,-328 # 2010 <test_data>
    1160:	000e8e93          	mv	t4,t4
    1164:	01100113          	li	sp,17
    1168:	002e8eb3          	add	t4,t4,sp
    116c:	fefeae03          	lw	t3,-17(t4)
    1170:	01c0a023          	sw	t3,0(ra)
    1174:	00001f17          	auipc	t5,0x1
    1178:	e9cf0f13          	addi	t5,t5,-356 # 2010 <test_data>
    117c:	004f0f13          	addi	t5,t5,4
    1180:	02100113          	li	sp,33
    1184:	002f0f33          	add	t5,t5,sp
    1188:	fdff2e83          	lw	t4,-33(t5)
    118c:	01d0a223          	sw	t4,4(ra)
    1190:	00001f97          	auipc	t6,0x1
    1194:	e80f8f93          	addi	t6,t6,-384 # 2010 <test_data>
    1198:	008f8f93          	addi	t6,t6,8
    119c:	04100113          	li	sp,65
    11a0:	002f8fb3          	add	t6,t6,sp
    11a4:	fbffaf03          	lw	t5,-65(t6)
    11a8:	01e0a423          	sw	t5,8(ra)
    11ac:	00001197          	auipc	gp,0x1
    11b0:	19018193          	addi	gp,gp,400 # 233c <signature_46_0>
    11b4:	00001097          	auipc	ra,0x1
    11b8:	e5c08093          	addi	ra,ra,-420 # 2010 <test_data>
    11bc:	00c08093          	addi	ra,ra,12
    11c0:	08100213          	li	tp,129
    11c4:	004080b3          	add	ra,ra,tp
    11c8:	f7f0af83          	lw	t6,-129(ra)
    11cc:	01f1a023          	sw	t6,0(gp)
    11d0:	00001117          	auipc	sp,0x1
    11d4:	e4010113          	addi	sp,sp,-448 # 2010 <test_data>
    11d8:	01010113          	addi	sp,sp,16
    11dc:	10100213          	li	tp,257
    11e0:	00410133          	add	sp,sp,tp
    11e4:	eff12083          	lw	ra,-257(sp)
    11e8:	0011a223          	sw	ra,4(gp)
    11ec:	00001117          	auipc	sp,0x1
    11f0:	e2410113          	addi	sp,sp,-476 # 2010 <test_data>
    11f4:	01410113          	addi	sp,sp,20
    11f8:	20100213          	li	tp,513
    11fc:	00410133          	add	sp,sp,tp
    1200:	dff12083          	lw	ra,-513(sp)
    1204:	0011a423          	sw	ra,8(gp)
    1208:	00001097          	auipc	ra,0x1
    120c:	14008093          	addi	ra,ra,320 # 2348 <signature_47_0>
    1210:	00001197          	auipc	gp,0x1
    1214:	e0018193          	addi	gp,gp,-512 # 2010 <test_data>
    1218:	01818193          	addi	gp,gp,24
    121c:	40100313          	li	t1,1025
    1220:	006181b3          	add	gp,gp,t1
    1224:	bff1a103          	lw	sp,-1025(gp)
    1228:	0020a023          	sw	sp,0(ra)
    122c:	00001217          	auipc	tp,0x1
    1230:	de420213          	addi	tp,tp,-540 # 2010 <test_data>
    1234:	01c20213          	addi	tp,tp,28 # 1c <trap_vector+0x18>
    1238:	80100313          	li	t1,-2047
    123c:	00620233          	add	tp,tp,t1
    1240:	7ff22183          	lw	gp,2047(tp) # 7ff <rvtest_code_begin+0x687>
    1244:	0030a223          	sw	gp,4(ra)
    1248:	00001297          	auipc	t0,0x1
    124c:	dc828293          	addi	t0,t0,-568 # 2010 <test_data>
    1250:	02028293          	addi	t0,t0,32
    1254:	00200313          	li	t1,2
    1258:	006282b3          	add	t0,t0,t1
    125c:	ffe2a203          	lw	tp,-2(t0)
    1260:	0040a423          	sw	tp,8(ra)
    1264:	00001097          	auipc	ra,0x1
    1268:	0f008093          	addi	ra,ra,240 # 2354 <signature_48_0>
    126c:	00001317          	auipc	t1,0x1
    1270:	da430313          	addi	t1,t1,-604 # 2010 <test_data>
    1274:	02430313          	addi	t1,t1,36
    1278:	00300113          	li	sp,3
    127c:	00230333          	add	t1,t1,sp
    1280:	ffd32283          	lw	t0,-3(t1)
    1284:	0050a023          	sw	t0,0(ra)
    1288:	00001397          	auipc	t2,0x1
    128c:	d8838393          	addi	t2,t2,-632 # 2010 <test_data>
    1290:	02838393          	addi	t2,t2,40
    1294:	00500113          	li	sp,5
    1298:	002383b3          	add	t2,t2,sp
    129c:	ffb3a303          	lw	t1,-5(t2)
    12a0:	0060a223          	sw	t1,4(ra)
    12a4:	00001417          	auipc	s0,0x1
    12a8:	d6c40413          	addi	s0,s0,-660 # 2010 <test_data>
    12ac:	02c40413          	addi	s0,s0,44
    12b0:	00900113          	li	sp,9
    12b4:	00240433          	add	s0,s0,sp
    12b8:	ff742383          	lw	t2,-9(s0)
    12bc:	0070a423          	sw	t2,8(ra)
    12c0:	00001097          	auipc	ra,0x1
    12c4:	0a008093          	addi	ra,ra,160 # 2360 <signature_49_0>
    12c8:	00001497          	auipc	s1,0x1
    12cc:	d4848493          	addi	s1,s1,-696 # 2010 <test_data>
    12d0:	03048493          	addi	s1,s1,48
    12d4:	01100113          	li	sp,17
    12d8:	002484b3          	add	s1,s1,sp
    12dc:	fef4a403          	lw	s0,-17(s1)
    12e0:	0080a023          	sw	s0,0(ra)
    12e4:	00001517          	auipc	a0,0x1
    12e8:	d2c50513          	addi	a0,a0,-724 # 2010 <test_data>
    12ec:	03450513          	addi	a0,a0,52
    12f0:	02100113          	li	sp,33
    12f4:	00250533          	add	a0,a0,sp
    12f8:	fdf52483          	lw	s1,-33(a0)
    12fc:	0090a223          	sw	s1,4(ra)
    1300:	00001597          	auipc	a1,0x1
    1304:	d1058593          	addi	a1,a1,-752 # 2010 <test_data>
    1308:	03858593          	addi	a1,a1,56
    130c:	04100113          	li	sp,65
    1310:	002585b3          	add	a1,a1,sp
    1314:	fbf5a503          	lw	a0,-65(a1)
    1318:	00a0a423          	sw	a0,8(ra)
    131c:	00001097          	auipc	ra,0x1
    1320:	05008093          	addi	ra,ra,80 # 236c <signature_50_0>
    1324:	00001617          	auipc	a2,0x1
    1328:	cec60613          	addi	a2,a2,-788 # 2010 <test_data>
    132c:	03c60613          	addi	a2,a2,60
    1330:	08100113          	li	sp,129
    1334:	00260633          	add	a2,a2,sp
    1338:	f7f62583          	lw	a1,-129(a2)
    133c:	00b0a023          	sw	a1,0(ra)
    1340:	00001697          	auipc	a3,0x1
    1344:	cd068693          	addi	a3,a3,-816 # 2010 <test_data>
    1348:	04068693          	addi	a3,a3,64
    134c:	10100113          	li	sp,257
    1350:	002686b3          	add	a3,a3,sp
    1354:	eff6a603          	lw	a2,-257(a3)
    1358:	00c0a223          	sw	a2,4(ra)
    135c:	00001717          	auipc	a4,0x1
    1360:	cb470713          	addi	a4,a4,-844 # 2010 <test_data>
    1364:	04470713          	addi	a4,a4,68
    1368:	20100113          	li	sp,513
    136c:	00270733          	add	a4,a4,sp
    1370:	dff72683          	lw	a3,-513(a4)
    1374:	00d0a423          	sw	a3,8(ra)
    1378:	00001097          	auipc	ra,0x1
    137c:	00008093          	mv	ra,ra
    1380:	00001797          	auipc	a5,0x1
    1384:	c9078793          	addi	a5,a5,-880 # 2010 <test_data>
    1388:	04878793          	addi	a5,a5,72
    138c:	40100113          	li	sp,1025
    1390:	002787b3          	add	a5,a5,sp
    1394:	bff7a703          	lw	a4,-1025(a5)
    1398:	00e0a023          	sw	a4,0(ra) # 2378 <signature_51_0>
    139c:	00001817          	auipc	a6,0x1
    13a0:	c7480813          	addi	a6,a6,-908 # 2010 <test_data>
    13a4:	04c80813          	addi	a6,a6,76
    13a8:	80100113          	li	sp,-2047
    13ac:	00280833          	add	a6,a6,sp
    13b0:	7ff82783          	lw	a5,2047(a6)
    13b4:	00f0a223          	sw	a5,4(ra)
    13b8:	00001897          	auipc	a7,0x1
    13bc:	c5888893          	addi	a7,a7,-936 # 2010 <test_data>
    13c0:	05088893          	addi	a7,a7,80
    13c4:	00200113          	li	sp,2
    13c8:	002888b3          	add	a7,a7,sp
    13cc:	ffe8a803          	lw	a6,-2(a7)
    13d0:	0100a423          	sw	a6,8(ra)
    13d4:	00001097          	auipc	ra,0x1
    13d8:	fb008093          	addi	ra,ra,-80 # 2384 <signature_52_0>
    13dc:	00001917          	auipc	s2,0x1
    13e0:	c3490913          	addi	s2,s2,-972 # 2010 <test_data>
    13e4:	05490913          	addi	s2,s2,84
    13e8:	00300113          	li	sp,3
    13ec:	00290933          	add	s2,s2,sp
    13f0:	ffd92883          	lw	a7,-3(s2)
    13f4:	0110a023          	sw	a7,0(ra)
    13f8:	00001997          	auipc	s3,0x1
    13fc:	c1898993          	addi	s3,s3,-1000 # 2010 <test_data>
    1400:	05898993          	addi	s3,s3,88
    1404:	00500113          	li	sp,5
    1408:	002989b3          	add	s3,s3,sp
    140c:	ffb9a903          	lw	s2,-5(s3)
    1410:	0120a223          	sw	s2,4(ra)
    1414:	00001a17          	auipc	s4,0x1
    1418:	bfca0a13          	addi	s4,s4,-1028 # 2010 <test_data>
    141c:	05ca0a13          	addi	s4,s4,92
    1420:	00900113          	li	sp,9
    1424:	002a0a33          	add	s4,s4,sp
    1428:	ff7a2983          	lw	s3,-9(s4)
    142c:	0130a423          	sw	s3,8(ra)
    1430:	00001097          	auipc	ra,0x1
    1434:	f6008093          	addi	ra,ra,-160 # 2390 <signature_53_0>
    1438:	00001a97          	auipc	s5,0x1
    143c:	bd8a8a93          	addi	s5,s5,-1064 # 2010 <test_data>
    1440:	060a8a93          	addi	s5,s5,96
    1444:	01100113          	li	sp,17
    1448:	002a8ab3          	add	s5,s5,sp
    144c:	fefaaa03          	lw	s4,-17(s5)
    1450:	0140a023          	sw	s4,0(ra)
    1454:	00001b17          	auipc	s6,0x1
    1458:	bbcb0b13          	addi	s6,s6,-1092 # 2010 <test_data>
    145c:	064b0b13          	addi	s6,s6,100
    1460:	02100113          	li	sp,33
    1464:	002b0b33          	add	s6,s6,sp
    1468:	fdfb2a83          	lw	s5,-33(s6)
    146c:	0150a223          	sw	s5,4(ra)
    1470:	00001b97          	auipc	s7,0x1
    1474:	ba0b8b93          	addi	s7,s7,-1120 # 2010 <test_data>
    1478:	068b8b93          	addi	s7,s7,104
    147c:	04100113          	li	sp,65
    1480:	002b8bb3          	add	s7,s7,sp
    1484:	fbfbab03          	lw	s6,-65(s7)
    1488:	0160a423          	sw	s6,8(ra)
    148c:	00001097          	auipc	ra,0x1
    1490:	f1008093          	addi	ra,ra,-240 # 239c <signature_54_0>
    1494:	00001c17          	auipc	s8,0x1
    1498:	b7cc0c13          	addi	s8,s8,-1156 # 2010 <test_data>
    149c:	06cc0c13          	addi	s8,s8,108
    14a0:	08100113          	li	sp,129
    14a4:	002c0c33          	add	s8,s8,sp
    14a8:	f7fc2b83          	lw	s7,-129(s8)
    14ac:	0170a023          	sw	s7,0(ra)
    14b0:	00001c97          	auipc	s9,0x1
    14b4:	b60c8c93          	addi	s9,s9,-1184 # 2010 <test_data>
    14b8:	070c8c93          	addi	s9,s9,112
    14bc:	10100113          	li	sp,257
    14c0:	002c8cb3          	add	s9,s9,sp
    14c4:	effcac03          	lw	s8,-257(s9)
    14c8:	0180a223          	sw	s8,4(ra)
    14cc:	00001d17          	auipc	s10,0x1
    14d0:	b44d0d13          	addi	s10,s10,-1212 # 2010 <test_data>
    14d4:	074d0d13          	addi	s10,s10,116
    14d8:	20100113          	li	sp,513
    14dc:	002d0d33          	add	s10,s10,sp
    14e0:	dffd2c83          	lw	s9,-513(s10)
    14e4:	0190a423          	sw	s9,8(ra)
    14e8:	00001097          	auipc	ra,0x1
    14ec:	ec008093          	addi	ra,ra,-320 # 23a8 <signature_55_0>
    14f0:	00001d97          	auipc	s11,0x1
    14f4:	b20d8d93          	addi	s11,s11,-1248 # 2010 <test_data>
    14f8:	078d8d93          	addi	s11,s11,120
    14fc:	40100113          	li	sp,1025
    1500:	002d8db3          	add	s11,s11,sp
    1504:	bffdad03          	lw	s10,-1025(s11)
    1508:	01a0a023          	sw	s10,0(ra)
    150c:	00001e17          	auipc	t3,0x1
    1510:	b04e0e13          	addi	t3,t3,-1276 # 2010 <test_data>
    1514:	07ce0e13          	addi	t3,t3,124
    1518:	80100113          	li	sp,-2047
    151c:	002e0e33          	add	t3,t3,sp
    1520:	7ffe2d83          	lw	s11,2047(t3)
    1524:	01b0a223          	sw	s11,4(ra)
    1528:	00001e97          	auipc	t4,0x1
    152c:	ae8e8e93          	addi	t4,t4,-1304 # 2010 <test_data>
    1530:	080e8e93          	addi	t4,t4,128
    1534:	00200113          	li	sp,2
    1538:	002e8eb3          	add	t4,t4,sp
    153c:	ffeeae03          	lw	t3,-2(t4)
    1540:	01c0a423          	sw	t3,8(ra)
    1544:	00001117          	auipc	sp,0x1
    1548:	e7010113          	addi	sp,sp,-400 # 23b4 <signature_56_0>
    154c:	00001f17          	auipc	t5,0x1
    1550:	ac4f0f13          	addi	t5,t5,-1340 # 2010 <test_data>
    1554:	084f0f13          	addi	t5,t5,132
    1558:	00300193          	li	gp,3
    155c:	003f0f33          	add	t5,t5,gp
    1560:	ffdf2e83          	lw	t4,-3(t5)
    1564:	01d12023          	sw	t4,0(sp)
    1568:	00001f97          	auipc	t6,0x1
    156c:	aa8f8f93          	addi	t6,t6,-1368 # 2010 <test_data>
    1570:	088f8f93          	addi	t6,t6,136
    1574:	00500193          	li	gp,5
    1578:	003f8fb3          	add	t6,t6,gp
    157c:	ffbfaf03          	lw	t5,-5(t6)
    1580:	01e12223          	sw	t5,4(sp)
    1584:	00001097          	auipc	ra,0x1
    1588:	a8c08093          	addi	ra,ra,-1396 # 2010 <test_data>
    158c:	08c08093          	addi	ra,ra,140
    1590:	00900193          	li	gp,9
    1594:	003080b3          	add	ra,ra,gp
    1598:	ff70af83          	lw	t6,-9(ra)
    159c:	01f12423          	sw	t6,8(sp)
    15a0:	00001097          	auipc	ra,0x1
    15a4:	e2008093          	addi	ra,ra,-480 # 23c0 <signature_57_0>
    15a8:	00001197          	auipc	gp,0x1
    15ac:	a6818193          	addi	gp,gp,-1432 # 2010 <test_data>
    15b0:	09018193          	addi	gp,gp,144
    15b4:	b6900113          	li	sp,-1175
    15b8:	002181b3          	add	gp,gp,sp
    15bc:	4971a003          	lw	zero,1175(gp)
    15c0:	0000a023          	sw	zero,0(ra)
    15c4:	00000013          	nop
    15c8:	00000013          	nop
    15cc:	00000013          	nop

000015d0 <rvtest_code_end>:
    15d0:	0ff0000f          	fence
    15d4:	00000073          	ecall
	...

Disassembly of section .tohost:

00002600 <tohost>:
	...

00002700 <fromhost>:
	...
